(lp1
S'http://www.tennisabstract.com/cgi-bin/player.cgi?p=RafaelNadal&f=ACareerqqo1'
p2
aS'http://www.tennisabstract.com/cgi-bin/player.cgi?p=BobbyReynolds&f=ACareerqqo1'
p3
aS'http://www.tennisabstract.com/cgi-bin/player.cgi?p=WillemPetrusMeyer&f=ACareerqqo1'
p4
aS'http://www.tennisabstract.com/cgi-bin/player.cgi?p=PabloCuevas&f=ACareerqqo1'
p5
aS'http://www.tennisabstract.com/cgi-bin/player.cgi?p=MarcosBaghdatis&f=ACareerqqo1'
p6
aS'http://www.tennisabstract.com/cgi-bin/player.cgi?p=KristianPless&f=ACareerqqo1'
p7
aS'http://www.tennisabstract.com/cgi-bin/player.cgi?p=YevgenyKafelnikov&f=ACareerqqo1'
p8
aS'http://www.tennisabstract.com/cgi-bin/player.cgi?p=JuanCarlosFerrero&f=ACareerqqo1'
p9
aS'http://www.tennisabstract.com/cgi-bin/player.cgi?p=MaxMirnyi&f=ACareerqqo1'
p10
aS'http://www.tennisabstract.com/cgi-bin/player.cgi?p=MichalTabara&f=ACareerqqo1'
p11
aS'http://www.tennisabstract.com/cgi-bin/player.cgi?p=MounirElAarej&f=ACareerqqo1'
p12
aS'http://www.tennisabstract.com/cgi-bin/player.cgi?p=LoukSorensen&f=ACareerqqo1'
p13
aS'http://www.tennisabstract.com/cgi-bin/player.cgi?p=MarcoPedrini&f=ACareerqqo1'
p14
aS'http://www.tennisabstract.com/cgi-bin/player.cgi?p=IvanDodig&f=ACareerqqo1'
p15
aS'http://www.tennisabstract.com/cgi-bin/player.cgi?p=DavidDiazVentura&f=ACareerqqo1'
p16
aS'http://www.tennisabstract.com/cgi-bin/player.cgi?p=AdamChadaj&f=ACareerqqo1'
p17
aS'http://www.tennisabstract.com/cgi-bin/player.cgi?p=JanezSemrajc&f=ACareerqqo1'
p18
aS'http://www.tennisabstract.com/cgi-bin/player.cgi?p=MiljanZekic&f=ACareerqqo1'
p19
aS'http://www.tennisabstract.com/cgi-bin/player.cgi?p=LamineOuahab&f=ACareerqqo1'
p20
aS'http://www.tennisabstract.com/cgi-bin/player.cgi?p=RobertYim&f=ACareerqqo1'
p21
aS'http://www.tennisabstract.com/cgi-bin/player.cgi?p=JeremyWurtzman&f=ACareerqqo1'
p22
aS'http://www.tennisabstract.com/cgi-bin/player.cgi?p=DusanVemic&f=ACareerqqo1'
p23
aS'http://www.tennisabstract.com/cgi-bin/player.cgi?p=LukaGregorc&f=ACareerqqo1'
p24
aS'http://www.tennisabstract.com/cgi-bin/player.cgi?p=DanielBrands&f=ACareerqqo1'
p25
aS'http://www.tennisabstract.com/cgi-bin/player.cgi?p=FacundoBagnis&f=ACareerqqo1'
p26
aS'http://www.tennisabstract.com/cgi-bin/player.cgi?p=LeonardoKirche&f=ACareerqqo1'
p27
aS'http://www.tennisabstract.com/cgi-bin/player.cgi?p=DanielDutraDaSilva&f=ACareerqqo1'
p28
aS'http://www.tennisabstract.com/cgi-bin/player.cgi?p=MartinRiosBenitez&f=ACareerqqo1'
p29
aS'http://www.tennisabstract.com/cgi-bin/player.cgi?p=StephaneRobert&f=ACareerqqo1'
p30
aS'http://www.tennisabstract.com/cgi-bin/player.cgi?p=GianlucaPozzi&f=ACareerqqo1'
p31
aS'http://www.tennisabstract.com/cgi-bin/player.cgi?p=GrantStafford&f=ACareerqqo1'
p32
aS'http://www.tennisabstract.com/cgi-bin/player.cgi?p=JaredPalmer&f=ACareerqqo1'
p33
aS'http://www.tennisabstract.com/cgi-bin/player.cgi?p=KevinCurren&f=ACareerqqo1'
p34
aS'http://www.tennisabstract.com/cgi-bin/player.cgi?p=DmitryVlasov&f=ACareerqqo1'
p35
aS'http://www.tennisabstract.com/cgi-bin/player.cgi?p=TomasCakl&f=ACareerqqo1'
p36
aS'http://www.tennisabstract.com/cgi-bin/player.cgi?p=OliverMarach&f=ACareerqqo1'
p37
aS'http://www.tennisabstract.com/cgi-bin/player.cgi?p=DmitriKotchetkov&f=ACareerqqo1'
p38
aS'http://www.tennisabstract.com/cgi-bin/player.cgi?p=NikolayDavydenko&f=ACareerqqo1'
p39
aS'http://www.tennisabstract.com/cgi-bin/player.cgi?p=AndreAgassi&f=ACareerqqo1'
p40
aS'http://www.tennisabstract.com/cgi-bin/player.cgi?p=JohnMcenroe&f=ACareerqqo1'
p41
aS'http://www.tennisabstract.com/cgi-bin/player.cgi?p=IsmailElShafei&f=ACareerqqo1'
p42
aS'http://www.tennisabstract.com/cgi-bin/player.cgi?p=AlanMackin&f=ACareerqqo1'
p43
aS'http://www.tennisabstract.com/cgi-bin/player.cgi?p=AlbertRamos&f=ACareerqqo1'
p44
aS'http://www.tennisabstract.com/cgi-bin/player.cgi?p=JoaoSousa&f=ACareerqqo1'
p45
aS'http://www.tennisabstract.com/cgi-bin/player.cgi?p=KomlaviLoglo&f=ACareerqqo1'
p46
aS'http://www.tennisabstract.com/cgi-bin/player.cgi?p=TaiWeiLiu&f=ACareerqqo1'
p47
aS'http://www.tennisabstract.com/cgi-bin/player.cgi?p=JalilKhan&f=ACareerqqo1'
p48
aS'http://www.tennisabstract.com/cgi-bin/player.cgi?p=RajeevRam&f=ACareerqqo1'
p49
aS'http://www.tennisabstract.com/cgi-bin/player.cgi?p=GillesElseneer&f=ACareerqqo1'
p50
aS'http://www.tennisabstract.com/cgi-bin/player.cgi?p=JordaneDoble&f=ACareerqqo1'
p51
aS'http://www.tennisabstract.com/cgi-bin/player.cgi?p=SergioRoitman&f=ACareerqqo1'
p52
aS'http://www.tennisabstract.com/cgi-bin/player.cgi?p=AlunJones&f=ACareerqqo1'
p53
aS'http://www.tennisabstract.com/cgi-bin/player.cgi?p=RobinHaase&f=ACareerqqo1'
p54
aS'http://www.tennisabstract.com/cgi-bin/player.cgi?p=HyungTaikLee&f=ACareerqqo1'
p55
aS'http://www.tennisabstract.com/cgi-bin/player.cgi?p=ThomasEnqvist&f=ACareerqqo1'
p56
aS'http://www.tennisabstract.com/cgi-bin/player.cgi?p=GillesSimon&f=ACareerqqo1'
p57
aS'http://www.tennisabstract.com/cgi-bin/player.cgi?p=GoranIvanisevic&f=ACareerqqo1'
p58
aS'http://www.tennisabstract.com/cgi-bin/player.cgi?p=LuisHorna&f=ACareerqqo1'
p59
aS'http://www.tennisabstract.com/cgi-bin/player.cgi?p=MarkHilton&f=ACareerqqo1'
p60
aS'http://www.tennisabstract.com/cgi-bin/player.cgi?p=JeromeHaehnel&f=ACareerqqo1'
p61
aS'http://www.tennisabstract.com/cgi-bin/player.cgi?p=AlessioDiMauro&f=ACareerqqo1'
p62
aS'http://www.tennisabstract.com/cgi-bin/player.cgi?p=RicardoMello&f=ACareerqqo1'
p63
aS'http://www.tennisabstract.com/cgi-bin/player.cgi?p=RobertoBautistaAgut&f=ACareerqqo1'
p64
aS'http://www.tennisabstract.com/cgi-bin/player.cgi?p=SimoneBolelli&f=ACareerqqo1'
p65
aS'http://www.tennisabstract.com/cgi-bin/player.cgi?p=LucasEngel&f=ACareerqqo1'
p66
aS'http://www.tennisabstract.com/cgi-bin/player.cgi?p=MarcelFelder&f=ACareerqqo1'
p67
aS'http://www.tennisabstract.com/cgi-bin/player.cgi?p=SebastienGrosjean&f=ACareerqqo1'
p68
aS'http://www.tennisabstract.com/cgi-bin/player.cgi?p=FilippoVolandri&f=ACareerqqo1'
p69
aS'http://www.tennisabstract.com/cgi-bin/player.cgi?p=SantiagoVentura&f=ACareerqqo1'
p70
aS'http://www.tennisabstract.com/cgi-bin/player.cgi?p=GeorgeBastl&f=ACareerqqo1'
p71
aS'http://www.tennisabstract.com/cgi-bin/player.cgi?p=JoachimJohansson&f=ACareerqqo1'
p72
aS'http://www.tennisabstract.com/cgi-bin/player.cgi?p=JulienBenneteau&f=ACareerqqo1'
p73
aS'http://www.tennisabstract.com/cgi-bin/player.cgi?p=IrakliLabadze&f=ACareerqqo1'
p74
aS'http://www.tennisabstract.com/cgi-bin/player.cgi?p=PotitoStarace&f=ACareerqqo1'
p75
aS'http://www.tennisabstract.com/cgi-bin/player.cgi?p=NicolasMahut&f=ACareerqqo1'
p76
aS'http://www.tennisabstract.com/cgi-bin/player.cgi?p=JankoTipsarevic&f=ACareerqqo1'
p77
aS'http://www.tennisabstract.com/cgi-bin/player.cgi?p=JonasBjorkman&f=ACareerqqo1'
p78
aS'http://www.tennisabstract.com/cgi-bin/player.cgi?p=NicolasAlmagro&f=ACareerqqo1'
p79
aS'http://www.tennisabstract.com/cgi-bin/player.cgi?p=AntonioAlcaraz&f=ACareerqqo1'
p80
aS'http://www.tennisabstract.com/cgi-bin/player.cgi?p=MarcosDaniel&f=ACareerqqo1'
p81
aS'http://www.tennisabstract.com/cgi-bin/player.cgi?p=GerardoHeyser&f=ACareerqqo1'
p82
aS'http://www.tennisabstract.com/cgi-bin/player.cgi?p=MichaelJessup&f=ACareerqqo1'
p83
aS'http://www.tennisabstract.com/cgi-bin/player.cgi?p=AlexKim&f=ACareerqqo1'
p84
aS'http://www.tennisabstract.com/cgi-bin/player.cgi?p=JaymonCrabb&f=ACareerqqo1'
p85
aS'http://www.tennisabstract.com/cgi-bin/player.cgi?p=AndrewPainter&f=ACareerqqo1'
p86
aS'http://www.tennisabstract.com/cgi-bin/player.cgi?p=JanKroslak&f=ACareerqqo1'
p87
aS'http://www.tennisabstract.com/cgi-bin/player.cgi?p=FrancoDavin&f=ACareerqqo1'
p88
aS'http://www.tennisabstract.com/cgi-bin/player.cgi?p=PabloArraya&f=ACareerqqo1'
p89
aS'http://www.tennisabstract.com/cgi-bin/player.cgi?p=AlexKuznetsov&f=ACareerqqo1'
p90
aS'http://www.tennisabstract.com/cgi-bin/player.cgi?p=RobSteckley&f=ACareerqqo1'
p91
aS'http://www.tennisabstract.com/cgi-bin/player.cgi?p=JhonnatanMedinaAlvarez&f=ACareerqqo1'
p92
aS'http://www.tennisabstract.com/cgi-bin/player.cgi?p=IvanMiranda&f=ACareerqqo1'
p93
aS'http://www.tennisabstract.com/cgi-bin/player.cgi?p=GermanPuentes&f=ACareerqqo1'
p94
aS'http://www.tennisabstract.com/cgi-bin/player.cgi?p=RafaelSerpaGuinazu&f=ACareerqqo1'
p95
aS'http://www.tennisabstract.com/cgi-bin/player.cgi?p=KristofVliegen&f=ACareerqqo1'
p96
aS'http://www.tennisabstract.com/cgi-bin/player.cgi?p=AlexCalatrava&f=ACareerqqo1'
p97
aS'http://www.tennisabstract.com/cgi-bin/player.cgi?p=RamonDelgado&f=ACareerqqo1'
p98
aS'http://www.tennisabstract.com/cgi-bin/player.cgi?p=HugoArmando&f=ACareerqqo1'
p99
aS'http://www.tennisabstract.com/cgi-bin/player.cgi?p=JulienBoutter&f=ACareerqqo1'
p100
aS'http://www.tennisabstract.com/cgi-bin/player.cgi?p=HidekiKaneko&f=ACareerqqo1'
p101
aS'http://www.tennisabstract.com/cgi-bin/player.cgi?p=LleytonHewitt&f=ACareerqqo1'
p102
aS'http://www.tennisabstract.com/cgi-bin/player.cgi?p=BernardTomic&f=ACareerqqo1'
p103
aS'http://www.tennisabstract.com/cgi-bin/player.cgi?p=YaokiIshii&f=ACareerqqo1'
p104
aS'http://www.tennisabstract.com/cgi-bin/player.cgi?p=ZackFleishman&f=ACareerqqo1'
p105
aS'http://www.tennisabstract.com/cgi-bin/player.cgi?p=JuanMonaco&f=ACareerqqo1'
p106
aS'http://www.tennisabstract.com/cgi-bin/player.cgi?p=ThomazBellucci&f=ACareerqqo1'
p107
aS'http://www.tennisabstract.com/cgi-bin/player.cgi?p=MathieuMontcourt&f=ACareerqqo1'
p108
aS'http://www.tennisabstract.com/cgi-bin/player.cgi?p=AndreasSeppi&f=ACareerqqo1'
p109
aS'http://www.tennisabstract.com/cgi-bin/player.cgi?p=JustinGimelstob&f=ACareerqqo1'
p110
aS'http://www.tennisabstract.com/cgi-bin/player.cgi?p=MarcosCondeJackson&f=ACareerqqo1'
p111
aS'http://www.tennisabstract.com/cgi-bin/player.cgi?p=IsraelMatosGil&f=ACareerqqo1'
p112
aS'http://www.tennisabstract.com/cgi-bin/player.cgi?p=GorkaFraile&f=ACareerqqo1'
p113
aS'http://www.tennisabstract.com/cgi-bin/player.cgi?p=OliverGross&f=ACareerqqo1'
p114
aS'http://www.tennisabstract.com/cgi-bin/player.cgi?p=KarolBeck&f=ACareerqqo1'
p115
aS'http://www.tennisabstract.com/cgi-bin/player.cgi?p=MichaelBerrer&f=ACareerqqo1'
p116
aS'http://www.tennisabstract.com/cgi-bin/player.cgi?p=AlbertPortas&f=ACareerqqo1'
p117
aS'http://www.tennisabstract.com/cgi-bin/player.cgi?p=RodolpheCadart&f=ACareerqqo1'
p118
aS'http://www.tennisabstract.com/cgi-bin/player.cgi?p=JimySzymanski&f=ACareerqqo1'
p119
aS'http://www.tennisabstract.com/cgi-bin/player.cgi?p=GuillermoGarciaLopez&f=ACareerqqo1'
p120
aS'http://www.tennisabstract.com/cgi-bin/player.cgi?p=KevinKim&f=ACareerqqo1'
p121
aS'http://www.tennisabstract.com/cgi-bin/player.cgi?p=RobinVik&f=ACareerqqo1'
p122
aS'http://www.tennisabstract.com/cgi-bin/player.cgi?p=LisandroMorello&f=ACareerqqo1'
p123
aS'http://www.tennisabstract.com/cgi-bin/player.cgi?p=ScottDraper&f=ACareerqqo1'
p124
aS'http://www.tennisabstract.com/cgi-bin/player.cgi?p=DimitriLorin&f=ACareerqqo1'
p125
aS'http://www.tennisabstract.com/cgi-bin/player.cgi?p=DiegoVeronelli&f=ACareerqqo1'
p126
aS'http://www.tennisabstract.com/cgi-bin/player.cgi?p=RogerioDutraSilva&f=ACareerqqo1'
p127
aS'http://www.tennisabstract.com/cgi-bin/player.cgi?p=IvanLjubicic&f=ACareerqqo1'
p128
aS'http://www.tennisabstract.com/cgi-bin/player.cgi?p=RobbyGinepri&f=ACareerqqo1'
p129
aS'http://www.tennisabstract.com/cgi-bin/player.cgi?p=TommyRobredo&f=ACareerqqo1'
p130
aS'http://www.tennisabstract.com/cgi-bin/player.cgi?p=TomasBehrend&f=ACareerqqo1'
p131
aS'http://www.tennisabstract.com/cgi-bin/player.cgi?p=PedroLeao&f=ACareerqqo1'
p132
aS'http://www.tennisabstract.com/cgi-bin/player.cgi?p=LeonardoOlguin&f=ACareerqqo1'
p133
aS'http://www.tennisabstract.com/cgi-bin/player.cgi?p=LeeChilds&f=ACareerqqo1'
p134
aS'http://www.tennisabstract.com/cgi-bin/player.cgi?p=AdamFeeney&f=ACareerqqo1'
p135
aS'http://www.tennisabstract.com/cgi-bin/player.cgi?p=MichaelLlodra&f=ACareerqqo1'
p136
aS'http://www.tennisabstract.com/cgi-bin/player.cgi?p=FrancoSquillari&f=ACareerqqo1'
p137
aS'http://www.tennisabstract.com/cgi-bin/player.cgi?p=ChrisGuccione&f=ACareerqqo1'
p138
aS'http://www.tennisabstract.com/cgi-bin/player.cgi?p=SomdevDevvarman&f=ACareerqqo1'
p139
aS'http://www.tennisabstract.com/cgi-bin/player.cgi?p=JimmyWang&f=ACareerqqo1'
p140
aS'http://www.tennisabstract.com/cgi-bin/player.cgi?p=ChrisNumbers&f=ACareerqqo1'
p141
aS'http://www.tennisabstract.com/cgi-bin/player.cgi?p=TomasBerdych&f=ACareerqqo1'
p142
aS'http://www.tennisabstract.com/cgi-bin/player.cgi?p=NicolasDevilder&f=ACareerqqo1'
p143
aS'http://www.tennisabstract.com/cgi-bin/player.cgi?p=EvanKing&f=ACareerqqo1'
p144
aS'http://www.tennisabstract.com/cgi-bin/player.cgi?p=FilipPeliwo&f=ACareerqqo1'
p145
aS'http://www.tennisabstract.com/cgi-bin/player.cgi?p=AlexiosHalebian&f=ACareerqqo1'
p146
aS'http://www.tennisabstract.com/cgi-bin/player.cgi?p=GiladBenZvi&f=ACareerqqo1'
p147
aS'http://www.tennisabstract.com/cgi-bin/player.cgi?p=KonstantinGerlakh&f=ACareerqqo1'
p148
aS'http://www.tennisabstract.com/cgi-bin/player.cgi?p=SamHutt&f=ACareerqqo1'
p149
aS'http://www.tennisabstract.com/cgi-bin/player.cgi?p=DanielGlancy&f=ACareerqqo1'
p150
aS'http://www.tennisabstract.com/cgi-bin/player.cgi?p=PabloCarrenoBusta&f=ACareerqqo1'
p151
aS'http://www.tennisabstract.com/cgi-bin/player.cgi?p=GuillermoCanas&f=ACareerqqo1'
p152
aS'http://www.tennisabstract.com/cgi-bin/player.cgi?p=BenoitPaire&f=ACareerqqo1'
p153
aS'http://www.tennisabstract.com/cgi-bin/player.cgi?p=ErvinEleskovic&f=ACareerqqo1'
p154
aS'http://www.tennisabstract.com/cgi-bin/player.cgi?p=DanielMunozDeLaNava&f=ACareerqqo1'
p155
aS'http://www.tennisabstract.com/cgi-bin/player.cgi?p=FelixMantilla&f=ACareerqqo1'
p156
aS'http://www.tennisabstract.com/cgi-bin/player.cgi?p=RobertFarah&f=ACareerqqo1'
p157
aS'http://www.tennisabstract.com/cgi-bin/player.cgi?p=ThiemoDeBakker&f=ACareerqqo1'
p158
aS'http://www.tennisabstract.com/cgi-bin/player.cgi?p=VivekShokeen&f=ACareerqqo1'
p159
aS'http://www.tennisabstract.com/cgi-bin/player.cgi?p=DavidNavarrete&f=ACareerqqo1'
p160
aS'http://www.tennisabstract.com/cgi-bin/player.cgi?p=JamieHunt&f=ACareerqqo1'
p161
aS'http://www.tennisabstract.com/cgi-bin/player.cgi?p=JaakPoldma&f=ACareerqqo1'
p162
aS'http://www.tennisabstract.com/cgi-bin/player.cgi?p=MartinKlizan&f=ACareerqqo1'
p163
aS'http://www.tennisabstract.com/cgi-bin/player.cgi?p=JeanReneLisnard&f=ACareerqqo1'
p164
aS'http://www.tennisabstract.com/cgi-bin/player.cgi?p=JacoVanDerWesthuizen&f=ACareerqqo1'
p165
aS'http://www.tennisabstract.com/cgi-bin/player.cgi?p=MarkKovacs&f=ACareerqqo1'
p166
aS'http://www.tennisabstract.com/cgi-bin/player.cgi?p=AlbertMontanes&f=ACareerqqo1'
p167
aS'http://www.tennisabstract.com/cgi-bin/player.cgi?p=MikhailKukushkin&f=ACareerqqo1'
p168
aS'http://www.tennisabstract.com/cgi-bin/player.cgi?p=JoWilfriedTsonga&f=ACareerqqo1'
p169
aS'http://www.tennisabstract.com/cgi-bin/player.cgi?p=AlexBogdanovic&f=ACareerqqo1'
p170
aS'http://www.tennisabstract.com/cgi-bin/player.cgi?p=JarkkoNieminen&f=ACareerqqo1'
p171
aS'http://www.tennisabstract.com/cgi-bin/player.cgi?p=JuanBalcells&f=ACareerqqo1'
p172
aS'http://www.tennisabstract.com/cgi-bin/player.cgi?p=FabioMaggi&f=ACareerqqo1'
p173
aS'http://www.tennisabstract.com/cgi-bin/player.cgi?p=NicolasLapentti&f=ACareerqqo1'
p174
aS'http://www.tennisabstract.com/cgi-bin/player.cgi?p=FelicianoLopez&f=ACareerqqo1'
p175
aS'http://www.tennisabstract.com/cgi-bin/player.cgi?p=MikhailYouzhny&f=ACareerqqo1'
p176
aS'http://www.tennisabstract.com/cgi-bin/player.cgi?p=AlexandrDolgopolov&f=ACareerqqo1'
p177
aS'http://www.tennisabstract.com/cgi-bin/player.cgi?p=DiegoSebastianSchwartzman&f=ACareerqqo1'
p178
aS'http://www.tennisabstract.com/cgi-bin/player.cgi?p=ChrisKwon&f=ACareerqqo1'
p179
aS'http://www.tennisabstract.com/cgi-bin/player.cgi?p=RossHutchins&f=ACareerqqo1'
p180
aS'http://www.tennisabstract.com/cgi-bin/player.cgi?p=RahilSyed&f=ACareerqqo1'
p181
aS'http://www.tennisabstract.com/cgi-bin/player.cgi?p=RalphGrambow&f=ACareerqqo1'
p182
aS'http://www.tennisabstract.com/cgi-bin/player.cgi?p=FilipDewulf&f=ACareerqqo1'
p183
aS'http://www.tennisabstract.com/cgi-bin/player.cgi?p=KentaroMasuda&f=ACareerqqo1'
p184
aS'http://www.tennisabstract.com/cgi-bin/player.cgi?p=SebastienDeChaunac&f=ACareerqqo1'
p185
aS'http://www.tennisabstract.com/cgi-bin/player.cgi?p=MichaelRyderstedt&f=ACareerqqo1'
p186
aS'http://www.tennisabstract.com/cgi-bin/player.cgi?p=RafaelMorenoNegrin&f=ACareerqqo1'
p187
aS'http://www.tennisabstract.com/cgi-bin/player.cgi?p=JuanGiner&f=ACareerqqo1'
p188
aS'http://www.tennisabstract.com/cgi-bin/player.cgi?p=JohanSettergren&f=ACareerqqo1'
p189
aS'http://www.tennisabstract.com/cgi-bin/player.cgi?p=JensKnippschild&f=ACareerqqo1'
p190
aS'http://www.tennisabstract.com/cgi-bin/player.cgi?p=TomasTenconi&f=ACareerqqo1'
p191
aS'http://www.tennisabstract.com/cgi-bin/player.cgi?p=TomasZib&f=ACareerqqo1'
p192
aS'http://www.tennisabstract.com/cgi-bin/player.cgi?p=FrankDancevic&f=ACareerqqo1'
p193
aS'http://www.tennisabstract.com/cgi-bin/player.cgi?p=MaximilianAbel&f=ACareerqqo1'
p194
aS'http://www.tennisabstract.com/cgi-bin/player.cgi?p=KJHippensteel&f=ACareerqqo1'
p195
aS'http://www.tennisabstract.com/cgi-bin/player.cgi?p=MichaelRussell&f=ACareerqqo1'
p196
aS'http://www.tennisabstract.com/cgi-bin/player.cgi?p=AlexanderWaske&f=ACareerqqo1'
p197
aS'http://www.tennisabstract.com/cgi-bin/player.cgi?p=DanielGimenoTraver&f=ACareerqqo1'
p198
aS'http://www.tennisabstract.com/cgi-bin/player.cgi?p=FernandoGonzalez&f=ACareerqqo1'
p199
aS'http://www.tennisabstract.com/cgi-bin/player.cgi?p=FernandoVicente&f=ACareerqqo1'
p200
aS'http://www.tennisabstract.com/cgi-bin/player.cgi?p=DmitryTursunov&f=ACareerqqo1'
p201
aS'http://www.tennisabstract.com/cgi-bin/player.cgi?p=AndreasBubik&f=ACareerqqo1'
p202
aS'http://www.tennisabstract.com/cgi-bin/player.cgi?p=AndyRam&f=ACareerqqo1'
p203
aS'http://www.tennisabstract.com/cgi-bin/player.cgi?p=JanHajek&f=ACareerqqo1'
p204
aS'http://www.tennisabstract.com/cgi-bin/player.cgi?p=MarceloCharpentier&f=ACareerqqo1'
p205
aS'http://www.tennisabstract.com/cgi-bin/player.cgi?p=JulienVarlet&f=ACareerqqo1'
p206
aS'http://www.tennisabstract.com/cgi-bin/player.cgi?p=DavidFerrer&f=ACareerqqo1'
p207
aS'http://www.tennisabstract.com/cgi-bin/player.cgi?p=TobiasKamke&f=ACareerqqo1'
p208
aS'http://www.tennisabstract.com/cgi-bin/player.cgi?p=MaratSafin&f=ACareerqqo1'
p209
aS'http://www.tennisabstract.com/cgi-bin/player.cgi?p=PaulHenriMathieu&f=ACareerqqo1'
p210
aS'http://www.tennisabstract.com/cgi-bin/player.cgi?p=JoseChecaCalvo&f=ACareerqqo1'
p211
aS'http://www.tennisabstract.com/cgi-bin/player.cgi?p=AndyRoddick&f=ACareerqqo1'
p212
aS'http://www.tennisabstract.com/cgi-bin/player.cgi?p=FabriceSantoro&f=ACareerqqo1'
p213
aS'http://www.tennisabstract.com/cgi-bin/player.cgi?p=JeremyChardy&f=ACareerqqo1'
p214
aS'http://www.tennisabstract.com/cgi-bin/player.cgi?p=SjengSchalken&f=ACareerqqo1'
p215
aS'http://www.tennisabstract.com/cgi-bin/player.cgi?p=GianniMina&f=ACareerqqo1'
p216
aS'http://www.tennisabstract.com/cgi-bin/player.cgi?p=PaoloLorenzi&f=ACareerqqo1'
p217
aS'http://www.tennisabstract.com/cgi-bin/player.cgi?p=JamesBlake&f=ACareerqqo1'
p218
aS'http://www.tennisabstract.com/cgi-bin/player.cgi?p=CarlosRexachItoiz&f=ACareerqqo1'
p219
aS'http://www.tennisabstract.com/cgi-bin/player.cgi?p=VadimKutsenko&f=ACareerqqo1'
p220
aS'http://www.tennisabstract.com/cgi-bin/player.cgi?p=IvanEsquerdo&f=ACareerqqo1'
p221
aS'http://www.tennisabstract.com/cgi-bin/player.cgi?p=SalvadorNavarro&f=ACareerqqo1'
p222
aS'http://www.tennisabstract.com/cgi-bin/player.cgi?p=LadislavSvarc&f=ACareerqqo1'
p223
aS'http://www.tennisabstract.com/cgi-bin/player.cgi?p=SolonPeppas&f=ACareerqqo1'
p224
aS'http://www.tennisabstract.com/cgi-bin/player.cgi?p=RadekStepanek&f=ACareerqqo1'
p225
aS'http://www.tennisabstract.com/cgi-bin/player.cgi?p=MarinkoMatosevic&f=ACareerqqo1'
p226
aS'http://www.tennisabstract.com/cgi-bin/player.cgi?p=NimaRoshan&f=ACareerqqo1'
p227
aS'http://www.tennisabstract.com/cgi-bin/player.cgi?p=ErnestsGulbis&f=ACareerqqo1'
p228
aS'http://www.tennisabstract.com/cgi-bin/player.cgi?p=MiguelAngelLopezJaen&f=ACareerqqo1'
p229
aS'http://www.tennisabstract.com/cgi-bin/player.cgi?p=ThomasJohansson&f=ACareerqqo1'
p230
aS'http://www.tennisabstract.com/cgi-bin/player.cgi?p=EzequielVelez&f=ACareerqqo1'
p231
aS'http://www.tennisabstract.com/cgi-bin/player.cgi?p=DanielElsner&f=ACareerqqo1'
p232
aS'http://www.tennisabstract.com/cgi-bin/player.cgi?p=NikolaCiric&f=ACareerqqo1'
p233
aS'http://www.tennisabstract.com/cgi-bin/player.cgi?p=MartonOtt&f=ACareerqqo1'
p234
aS'http://www.tennisabstract.com/cgi-bin/player.cgi?p=OlivierMutis&f=ACareerqqo1'
p235
aS'http://www.tennisabstract.com/cgi-bin/player.cgi?p=IvanVajda&f=ACareerqqo1'
p236
aS'http://www.tennisabstract.com/cgi-bin/player.cgi?p=PatricioArquez&f=ACareerqqo1'
p237
aS'http://www.tennisabstract.com/cgi-bin/player.cgi?p=SimonWernhart&f=ACareerqqo1'
p238
aS'http://www.tennisabstract.com/cgi-bin/player.cgi?p=MadsGottlieb&f=ACareerqqo1'
p239
aS'http://www.tennisabstract.com/cgi-bin/player.cgi?p=RylerDeheart&f=ACareerqqo1'
p240
aS'http://www.tennisabstract.com/cgi-bin/player.cgi?p=JanHernych&f=ACareerqqo1'
p241
aS'http://www.tennisabstract.com/cgi-bin/player.cgi?p=PeterGojowczyk&f=ACareerqqo1'
p242
aS'http://www.tennisabstract.com/cgi-bin/player.cgi?p=AlexeyKedryuk&f=ACareerqqo1'
p243
aS'http://www.tennisabstract.com/cgi-bin/player.cgi?p=VincentSpadea&f=ACareerqqo1'
p244
aS'http://www.tennisabstract.com/cgi-bin/player.cgi?p=WesleyMoodie&f=ACareerqqo1'
p245
aS'http://www.tennisabstract.com/cgi-bin/player.cgi?p=JordiMarseVidri&f=ACareerqqo1'
p246
aS'http://www.tennisabstract.com/cgi-bin/player.cgi?p=AndrejMartin&f=ACareerqqo1'
p247
aS'http://www.tennisabstract.com/cgi-bin/player.cgi?p=DenisGremelmayr&f=ACareerqqo1'
p248
aS'http://www.tennisabstract.com/cgi-bin/player.cgi?p=DelfGohlke&f=ACareerqqo1'
p249
aS'http://www.tennisabstract.com/cgi-bin/player.cgi?p=PeterTorebko&f=ACareerqqo1'
p250
aS'http://www.tennisabstract.com/cgi-bin/player.cgi?p=MikhailLedovskikh&f=ACareerqqo1'
p251
aS'http://www.tennisabstract.com/cgi-bin/player.cgi?p=RubenRamirezHidalgo&f=ACareerqqo1'
p252
aS'http://www.tennisabstract.com/cgi-bin/player.cgi?p=SamQuerrey&f=ACareerqqo1'
p253
aS'http://www.tennisabstract.com/cgi-bin/player.cgi?p=AlessandroDaCol&f=ACareerqqo1'
p254
aS'http://www.tennisabstract.com/cgi-bin/player.cgi?p=VasilisMazarakis&f=ACareerqqo1'
p255
aS'http://www.tennisabstract.com/cgi-bin/player.cgi?p=FlorianMayer&f=ACareerqqo1'
p256
aS'http://www.tennisabstract.com/cgi-bin/player.cgi?p=BjornPhau&f=ACareerqqo1'
p257
aS'http://www.tennisabstract.com/cgi-bin/player.cgi?p=VictorHanescu&f=ACareerqqo1'
p258
aS'http://www.tennisabstract.com/cgi-bin/player.cgi?p=HoracioZeballos&f=ACareerqqo1'
p259
aS'http://www.tennisabstract.com/cgi-bin/player.cgi?p=XavierMalisse&f=ACareerqqo1'
p260
aS'http://www.tennisabstract.com/cgi-bin/player.cgi?p=JavierGenaroMartinez&f=ACareerqqo1'
p261
aS'http://www.tennisabstract.com/cgi-bin/player.cgi?p=AgustinTarantino&f=ACareerqqo1'
p262
aS'http://www.tennisabstract.com/cgi-bin/player.cgi?p=StanislasWawrinka&f=ACareerqqo1'
p263
aS'http://www.tennisabstract.com/cgi-bin/player.cgi?p=JohnThivolle&f=ACareerqqo1'
p264
aS'http://www.tennisabstract.com/cgi-bin/player.cgi?p=OscarSerrano&f=ACareerqqo1'
p265
aS'http://www.tennisabstract.com/cgi-bin/player.cgi?p=FerranVenturaMartell&f=ACareerqqo1'
p266
aS'http://www.tennisabstract.com/cgi-bin/player.cgi?p=ChristopheRochus&f=ACareerqqo1'
p267
aS'http://www.tennisabstract.com/cgi-bin/player.cgi?p=GoSoeda&f=ACareerqqo1'
p268
aS'http://www.tennisabstract.com/cgi-bin/player.cgi?p=SteveDarcis&f=ACareerqqo1'
p269
aS'http://www.tennisabstract.com/cgi-bin/player.cgi?p=MagnusNorman&f=ACareerqqo1'
p270
aS'http://www.tennisabstract.com/cgi-bin/player.cgi?p=LukasRosol&f=ACareerqqo1'
p271
aS'http://www.tennisabstract.com/cgi-bin/player.cgi?p=AndreaSerra&f=ACareerqqo1'
p272
aS'http://www.tennisabstract.com/cgi-bin/player.cgi?p=RubenBemelmans&f=ACareerqqo1'
p273
aS'http://www.tennisabstract.com/cgi-bin/player.cgi?p=MikhailElgin&f=ACareerqqo1'
p274
aS'http://www.tennisabstract.com/cgi-bin/player.cgi?p=DavideSanguinetti&f=ACareerqqo1'
p275
aS'http://www.tennisabstract.com/cgi-bin/player.cgi?p=DenisIstomin&f=ACareerqqo1'
p276
aS'http://www.tennisabstract.com/cgi-bin/player.cgi?p=QuocKhanhLe&f=ACareerqqo1'
p277
aS'http://www.tennisabstract.com/cgi-bin/player.cgi?p=DieterKindlmann&f=ACareerqqo1'
p278
aS'http://www.tennisabstract.com/cgi-bin/player.cgi?p=MilosRaonic&f=ACareerqqo1'
p279
aS'http://www.tennisabstract.com/cgi-bin/player.cgi?p=IvoKarlovic&f=ACareerqqo1'
p280
aS'http://www.tennisabstract.com/cgi-bin/player.cgi?p=CarlosBerlocq&f=ACareerqqo1'
p281
aS'http://www.tennisabstract.com/cgi-bin/player.cgi?p=GaelMonfils&f=ACareerqqo1'
p282
aS'http://www.tennisabstract.com/cgi-bin/player.cgi?p=AndreyGolubev&f=ACareerqqo1'
p283
aS'http://www.tennisabstract.com/cgi-bin/player.cgi?p=SantiagoGiraldo&f=ACareerqqo1'
p284
aS'http://www.tennisabstract.com/cgi-bin/player.cgi?p=DanieleBracciali&f=ACareerqqo1'
p285
aS'http://www.tennisabstract.com/cgi-bin/player.cgi?p=PhilippKohlschreiber&f=ACareerqqo1'
p286
aS'http://www.tennisabstract.com/cgi-bin/player.cgi?p=JuanMartinDelPotro&f=ACareerqqo1'
p287
aS'http://www.tennisabstract.com/cgi-bin/player.cgi?p=ArkadyBassetti&f=ACareerqqo1'
p288
aS'http://www.tennisabstract.com/cgi-bin/player.cgi?p=LucianoVitullo&f=ACareerqqo1'
p289
aS'http://www.tennisabstract.com/cgi-bin/player.cgi?p=RainerSchuettler&f=ACareerqqo1'
p290
aS'http://www.tennisabstract.com/cgi-bin/player.cgi?p=RikDeVoest&f=ACareerqqo1'
p291
aS'http://www.tennisabstract.com/cgi-bin/player.cgi?p=GregoryCarraz&f=ACareerqqo1'
p292
aS'http://www.tennisabstract.com/cgi-bin/player.cgi?p=MarkusHantschk&f=ACareerqqo1'
p293
aS'http://www.tennisabstract.com/cgi-bin/player.cgi?p=RainerFalenti&f=ACareerqqo1'
p294
aS'http://www.tennisabstract.com/cgi-bin/player.cgi?p=MarkPhilippoussis&f=ACareerqqo1'
p295
aS'http://www.tennisabstract.com/cgi-bin/player.cgi?p=ThanasiKokkinakis&f=ACareerqqo1'
p296
aS'http://www.tennisabstract.com/cgi-bin/player.cgi?p=DonaldYoung&f=ACareerqqo1'
p297
aS'http://www.tennisabstract.com/cgi-bin/player.cgi?p=GabrielFrias&f=ACareerqqo1'
p298
aS'http://www.tennisabstract.com/cgi-bin/player.cgi?p=RogerFederer&f=ACareerqqo1'
p299
aS'http://www.tennisabstract.com/cgi-bin/player.cgi?p=FlavioCipolla&f=ACareerqqo1'
p300
aS'http://www.tennisabstract.com/cgi-bin/player.cgi?p=JiriNovak&f=ACareerqqo1'
p301
aS'http://www.tennisabstract.com/cgi-bin/player.cgi?p=IgorAndreev&f=ACareerqqo1'
p302
aS'http://www.tennisabstract.com/cgi-bin/player.cgi?p=AndreasBeck&f=ACareerqqo1'
p303
aS'http://www.tennisabstract.com/cgi-bin/player.cgi?p=AgustinCalleri&f=ACareerqqo1'
p304
aS'http://www.tennisabstract.com/cgi-bin/player.cgi?p=JurgenMelzer&f=ACareerqqo1'
p305
aS'http://www.tennisabstract.com/cgi-bin/player.cgi?p=FabioFognini&f=ACareerqqo1'
p306
aS'http://www.tennisabstract.com/cgi-bin/player.cgi?p=MatthewEbden&f=ACareerqqo1'
p307
aS'http://www.tennisabstract.com/cgi-bin/player.cgi?p=PhilippPetzschner&f=ACareerqqo1'
p308
aS'http://www.tennisabstract.com/cgi-bin/player.cgi?p=KaranRastogi&f=ACareerqqo1'
p309
aS'http://www.tennisabstract.com/cgi-bin/player.cgi?p=SergiyStakhovsky&f=ACareerqqo1'
p310
aS'http://www.tennisabstract.com/cgi-bin/player.cgi?p=AndyMurray&f=ACareerqqo1'
p311
aS'http://www.tennisabstract.com/cgi-bin/player.cgi?p=AndreiStoliarov&f=ACareerqqo1'
p312
aS'http://www.tennisabstract.com/cgi-bin/player.cgi?p=AlexCorretja&f=ACareerqqo1'
p313
aS'http://www.tennisabstract.com/cgi-bin/player.cgi?p=JoaoSouza&f=ACareerqqo1'
p314
aS'http://www.tennisabstract.com/cgi-bin/player.cgi?p=FedericoDelbonis&f=ACareerqqo1'
p315
aS'http://www.tennisabstract.com/cgi-bin/player.cgi?p=GuillermoPlatel&f=ACareerqqo1'
p316
aS'http://www.tennisabstract.com/cgi-bin/player.cgi?p=RidrigoEchagaray&f=ACareerqqo1'
p317
aS'http://www.tennisabstract.com/cgi-bin/player.cgi?p=RafaelDeMesa&f=ACareerqqo1'
p318
aS'http://www.tennisabstract.com/cgi-bin/player.cgi?p=BrianDabul&f=ACareerqqo1'
p319
aS'http://www.tennisabstract.com/cgi-bin/player.cgi?p=AlbertCosta&f=ACareerqqo1'
p320
aS'http://www.tennisabstract.com/cgi-bin/player.cgi?p=WernerEschauer&f=ACareerqqo1'
p321
aS'http://www.tennisabstract.com/cgi-bin/player.cgi?p=TimoNieminen&f=ACareerqqo1'
p322
aS'http://www.tennisabstract.com/cgi-bin/player.cgi?p=TeymurazGabashvili&f=ACareerqqo1'
p323
aS'http://www.tennisabstract.com/cgi-bin/player.cgi?p=BenjaminBecker&f=ACareerqqo1'
p324
aS'http://www.tennisabstract.com/cgi-bin/player.cgi?p=RokoKaranusic&f=ACareerqqo1'
p325
aS'http://www.tennisabstract.com/cgi-bin/player.cgi?p=GillesMuller&f=ACareerqqo1'
p326
aS'http://www.tennisabstract.com/cgi-bin/player.cgi?p=RogierWassen&f=ACareerqqo1'
p327
aS'http://www.tennisabstract.com/cgi-bin/player.cgi?p=FredericoGil&f=ACareerqqo1'
p328
aS'http://www.tennisabstract.com/cgi-bin/player.cgi?p=AlexanderRojas&f=ACareerqqo1'
p329
aS'http://www.tennisabstract.com/cgi-bin/player.cgi?p=MicheleScardigno&f=ACareerqqo1'
p330
aS'http://www.tennisabstract.com/cgi-bin/player.cgi?p=YuriSchukin&f=ACareerqqo1'
p331
aS'http://www.tennisabstract.com/cgi-bin/player.cgi?p=JiriVanek&f=ACareerqqo1'
p332
aS'http://www.tennisabstract.com/cgi-bin/player.cgi?p=EduardoBergmann&f=ACareerqqo1'
p333
aS'http://www.tennisabstract.com/cgi-bin/player.cgi?p=MarioAncic&f=ACareerqqo1'
p334
aS'http://www.tennisabstract.com/cgi-bin/player.cgi?p=RyanHarrison&f=ACareerqqo1'
p335
aS'http://www.tennisabstract.com/cgi-bin/player.cgi?p=StefanoGalvani&f=ACareerqqo1'
p336
aS'http://www.tennisabstract.com/cgi-bin/player.cgi?p=AmirHadad&f=ACareerqqo1'
p337
aS'http://www.tennisabstract.com/cgi-bin/player.cgi?p=TommyHaas&f=ACareerqqo1'
p338
aS'http://www.tennisabstract.com/cgi-bin/player.cgi?p=EduardoSchwank&f=ACareerqqo1'
p339
aS'http://www.tennisabstract.com/cgi-bin/player.cgi?p=JoseAcasuso&f=ACareerqqo1'
p340
aS'http://www.tennisabstract.com/cgi-bin/player.cgi?p=JohnIsner&f=ACareerqqo1'
p341
aS'http://www.tennisabstract.com/cgi-bin/player.cgi?p=NovakDjokovic&f=ACareerqqo1'
p342
aS'http://www.tennisabstract.com/cgi-bin/player.cgi?p=MarcFornellMestres&f=ACareerqqo1'
p343
aS'http://www.tennisabstract.com/cgi-bin/player.cgi?p=JuanJoseLealGomez&f=ACareerqqo1'
p344
aS'http://www.tennisabstract.com/cgi-bin/player.cgi?p=PeterLuczak&f=ACareerqqo1'
p345
aS'http://www.tennisabstract.com/cgi-bin/player.cgi?p=AndreasKauntz&f=ACareerqqo1'
p346
aS'http://www.tennisabstract.com/cgi-bin/player.cgi?p=TetsuyaChaen&f=ACareerqqo1'
p347
aS'http://www.tennisabstract.com/cgi-bin/player.cgi?p=BradPearce&f=ACareerqqo1'
p348
aS'http://www.tennisabstract.com/cgi-bin/player.cgi?p=JorgeLozano&f=ACareerqqo1'
p349
aS'http://www.tennisabstract.com/cgi-bin/player.cgi?p=AdrianVoinea&f=ACareerqqo1'
p350
aS'http://www.tennisabstract.com/cgi-bin/player.cgi?p=GabrielTrujilloSoler&f=ACareerqqo1'
p351
aS'http://www.tennisabstract.com/cgi-bin/player.cgi?p=TimHenman&f=ACareerqqo1'
p352
aS'http://www.tennisabstract.com/cgi-bin/player.cgi?p=GaryHenderson&f=ACareerqqo1'
p353
aS'http://www.tennisabstract.com/cgi-bin/player.cgi?p=ScovilleJenkins&f=ACareerqqo1'
p354
aS'http://www.tennisabstract.com/cgi-bin/player.cgi?p=ThierryAscione&f=ACareerqqo1'
p355
aS'http://www.tennisabstract.com/cgi-bin/player.cgi?p=FernandoVerdasco&f=ACareerqqo1'
p356
aS'http://www.tennisabstract.com/cgi-bin/player.cgi?p=SlimaneSaoudi&f=ACareerqqo1'
p357
aS'http://www.tennisabstract.com/cgi-bin/player.cgi?p=ParadornSrichaphan&f=ACareerqqo1'
p358
aS'http://www.tennisabstract.com/cgi-bin/player.cgi?p=MartinAlund&f=ACareerqqo1'
p359
aS'http://www.tennisabstract.com/cgi-bin/player.cgi?p=JuanLuisTatiRascon&f=ACareerqqo1'
p360
aS'http://www.tennisabstract.com/cgi-bin/player.cgi?p=MarianoPuerta&f=ACareerqqo1'
p361
aS'http://www.tennisabstract.com/cgi-bin/player.cgi?p=NicolasKiefer&f=ACareerqqo1'
p362
aS'http://www.tennisabstract.com/cgi-bin/player.cgi?p=BingPan&f=ACareerqqo1'
p363
aS'http://www.tennisabstract.com/cgi-bin/player.cgi?p=RichardKrajicek&f=ACareerqqo1'
p364
aS'http://www.tennisabstract.com/cgi-bin/player.cgi?p=LeonardoMayer&f=ACareerqqo1'
p365
aS'http://www.tennisabstract.com/cgi-bin/player.cgi?p=GuillermoCoria&f=ACareerqqo1'
p366
aS'http://www.tennisabstract.com/cgi-bin/player.cgi?p=MassimoDellacqua&f=ACareerqqo1'
p367
aS'http://www.tennisabstract.com/cgi-bin/player.cgi?p=ArnaudClement&f=ACareerqqo1'
p368
aS'http://www.tennisabstract.com/cgi-bin/player.cgi?p=CarlosMoya&f=ACareerqqo1'
p369
aS'http://www.tennisabstract.com/cgi-bin/player.cgi?p=JordiVilaVila&f=ACareerqqo1'
p370
aS'http://www.tennisabstract.com/cgi-bin/player.cgi?p=JerzyJanowicz&f=ACareerqqo1'
p371
aS'http://www.tennisabstract.com/cgi-bin/player.cgi?p=JordanThompson&f=ACareerqqo1'
p372
aS'http://www.tennisabstract.com/cgi-bin/player.cgi?p=JiriVesely&f=ACareerqqo1'
p373
aS'http://www.tennisabstract.com/cgi-bin/player.cgi?p=YounesElAynaoui&f=ACareerqqo1'
p374
aS'http://www.tennisabstract.com/cgi-bin/player.cgi?p=IvanNavarro&f=ACareerqqo1'
p375
aS'http://www.tennisabstract.com/cgi-bin/player.cgi?p=JuanAntonioMarin&f=ACareerqqo1'
p376
aS'http://www.tennisabstract.com/cgi-bin/player.cgi?p=RobertoMenendez&f=ACareerqqo1'
p377
aS'http://www.tennisabstract.com/cgi-bin/player.cgi?p=GaloBlanco&f=ACareerqqo1'
p378
aS'http://www.tennisabstract.com/cgi-bin/player.cgi?p=MarcelGranollers&f=ACareerqqo1'
p379
aS'http://www.tennisabstract.com/cgi-bin/player.cgi?p=LarsBurgsmuller&f=ACareerqqo1'
p380
aS'http://www.tennisabstract.com/cgi-bin/player.cgi?p=FrancescLleal&f=ACareerqqo1'
p381
aS'http://www.tennisabstract.com/cgi-bin/player.cgi?p=PabloAndujar&f=ACareerqqo1'
p382
aS'http://www.tennisabstract.com/cgi-bin/player.cgi?p=FrankCondor&f=ACareerqqo1'
p383
aS'http://www.tennisabstract.com/cgi-bin/player.cgi?p=MardyFish&f=ACareerqqo1'
p384
aS'http://www.tennisabstract.com/cgi-bin/player.cgi?p=AlbertoMartin&f=ACareerqqo1'
p385
aS'http://www.tennisabstract.com/cgi-bin/player.cgi?p=DominikHrbaty&f=ACareerqqo1'
p386
aS'http://www.tennisabstract.com/cgi-bin/player.cgi?p=ArnaudDiPasquale&f=ACareerqqo1'
p387
aS'http://www.tennisabstract.com/cgi-bin/player.cgi?p=RichardGasquet&f=ACareerqqo1'
p388
aS'http://www.tennisabstract.com/cgi-bin/player.cgi?p=RyanSweeting&f=ACareerqqo1'
p389
aS'http://www.tennisabstract.com/cgi-bin/player.cgi?p=KeiNishikori&f=ACareerqqo1'
p390
aS'http://www.tennisabstract.com/cgi-bin/player.cgi?p=TaylorDent&f=ACareerqqo1'
p391
aS'http://www.tennisabstract.com/cgi-bin/player.cgi?p=JuanIgnacioChela&f=ACareerqqo1'
p392
aS'http://www.tennisabstract.com/cgi-bin/player.cgi?p=RaemonSluiter&f=ACareerqqo1'
p393
aS'http://www.tennisabstract.com/cgi-bin/player.cgi?p=KevinAnderson&f=ACareerqqo1'
p394
aS'http://www.tennisabstract.com/cgi-bin/player.cgi?p=MarinCilic&f=ACareerqqo1'
p395
aS'http://www.tennisabstract.com/cgi-bin/player.cgi?p=NicolasMassu&f=ACareerqqo1'
p396
aS'http://www.tennisabstract.com/cgi-bin/player.cgi?p=ViktorTroicki&f=ACareerqqo1'
p397
aS'http://www.tennisabstract.com/cgi-bin/player.cgi?p=DavidNalbandian&f=ACareerqqo1'
p398
aS'http://www.tennisabstract.com/cgi-bin/player.cgi?p=LukasLacko&f=ACareerqqo1'
p399
aS'http://www.tennisabstract.com/cgi-bin/player.cgi?p=MartinVassalloArguello&f=ACareerqqo1'
p400
aS'http://www.tennisabstract.com/cgi-bin/player.cgi?p=GastonGaudio&f=ACareerqqo1'
p401
aS'http://www.tennisabstract.com/cgi-bin/player.cgi?p=RobinSoderling&f=ACareerqqo1'
p402
aS'http://www.tennisabstract.com/cgi-bin/player.cgi?p=AntonioVeic&f=ACareerqqo1'
p403
aS'http://www.tennisabstract.com/cgi-bin/player.cgi?p=CarlosSalamanca&f=ACareerqqo1'
p404
aS'http://www.tennisabstract.com/cgi-bin/player.cgi?p=RobertKendrick&f=ACareerqqo1'
p405
aS'http://www.tennisabstract.com/cgi-bin/player.cgi?p=AlbertoBanusSado&f=ACareerqqo1'
p406
aS'http://www.tennisabstract.com/cgi-bin/player.cgi?p=KarolKucera&f=ACareerqqo1'
p407
aS'http://www.tennisabstract.com/cgi-bin/player.cgi?p=JesseLevine&f=ACareerqqo1'
p408
aS'http://www.tennisabstract.com/cgi-bin/player.cgi?p=PeterWessels&f=ACareerqqo1'
p409
aS'http://www.tennisabstract.com/cgi-bin/player.cgi?p=PaulBaccanello&f=ACareerqqo1'
p410
aS'http://www.tennisabstract.com/cgi-bin/player.cgi?p=FlorentSerra&f=ACareerqqo1'
p411
aS'http://www.tennisabstract.com/cgi-bin/player.cgi?p=GrigorDimitrov&f=ACareerqqo1'
p412
aS'http://www.tennisabstract.com/cgi-bin/player.cgi?p=OscarHernandez&f=ACareerqqo1'
p413
aS'http://www.tennisabstract.com/cgi-bin/player.cgi?p=OlivierRochus&f=ACareerqqo1'
p414
aS'http://www.tennisabstract.com/cgi-bin/player.cgi?p=IvoHeuberger&f=ACareerqqo1'
p415
aS'http://www.tennisabstract.com/cgi-bin/player.cgi?p=AntonioPastorino&f=ACareerqqo1'
p416
aS'http://www.tennisabstract.com/cgi-bin/player.cgi?p=ErikChvojka&f=ACareerqqo1'
p417
aS'http://www.tennisabstract.com/cgi-bin/player.cgi?p=YannikReuter&f=ACareerqqo1'
p418
aS'http://www.tennisabstract.com/cgi-bin/player.cgi?p=HamidMirzadeh&f=ACareerqqo1'
p419
aS'http://www.tennisabstract.com/cgi-bin/player.cgi?p=LuisManuelFlores&f=ACareerqqo1'
p420
aS'http://www.tennisabstract.com/cgi-bin/player.cgi?p=JackSock&f=ACareerqqo1'
p421
aS'http://www.tennisabstract.com/cgi-bin/player.cgi?p=JorgeAguilar&f=ACareerqqo1'
p422
aS'http://www.tennisabstract.com/cgi-bin/player.cgi?p=FilipKrajinovic&f=ACareerqqo1'
p423
aS'http://www.tennisabstract.com/cgi-bin/player.cgi?p=HarshMankad&f=ACareerqqo1'
p424
aS'http://www.tennisabstract.com/cgi-bin/player.cgi?p=AleksandarVlaski&f=ACareerqqo1'
p425
aS'http://www.tennisabstract.com/cgi-bin/player.cgi?p=WesleyWhitehouse&f=ACareerqqo1'
p426
aS'http://www.tennisabstract.com/cgi-bin/player.cgi?p=LaurynasGrigelis&f=ACareerqqo1'
p427
aS'http://www.tennisabstract.com/cgi-bin/player.cgi?p=TresDavis&f=ACareerqqo1'
p428
aS'http://www.tennisabstract.com/cgi-bin/player.cgi?p=MarianoPettigrosso&f=ACareerqqo1'
p429
aS'http://www.tennisabstract.com/cgi-bin/player.cgi?p=PeterClarke&f=ACareerqqo1'
p430
aS'http://www.tennisabstract.com/cgi-bin/player.cgi?p=YuichiSugita&f=ACareerqqo1'
p431
aS'http://www.tennisabstract.com/cgi-bin/player.cgi?p=BenediktDorsch&f=ACareerqqo1'
p432
aS'http://www.tennisabstract.com/cgi-bin/player.cgi?p=LaurentRecouderc&f=ACareerqqo1'
p433
aS'http://www.tennisabstract.com/cgi-bin/player.cgi?p=DawidOlejniczak&f=ACareerqqo1'
p434
aS'http://www.tennisabstract.com/cgi-bin/player.cgi?p=ConnorGlennon&f=ACareerqqo1'
p435
aS'http://www.tennisabstract.com/cgi-bin/player.cgi?p=AustinKrajicek&f=ACareerqqo1'
p436
aS'http://www.tennisabstract.com/cgi-bin/player.cgi?p=MarcoCrugnola&f=ACareerqqo1'
p437
aS'http://www.tennisabstract.com/cgi-bin/player.cgi?p=LukeBourgeois&f=ACareerqqo1'
p438
aS'http://www.tennisabstract.com/cgi-bin/player.cgi?p=AntePavic&f=ACareerqqo1'
p439
aS'http://www.tennisabstract.com/cgi-bin/player.cgi?p=DenisKudla&f=ACareerqqo1'
p440
aS'http://www.tennisabstract.com/cgi-bin/player.cgi?p=JoseDeArmas&f=ACareerqqo1'
p441
aS'http://www.tennisabstract.com/cgi-bin/player.cgi?p=MarcKimmich&f=ACareerqqo1'
p442
aS'http://www.tennisabstract.com/cgi-bin/player.cgi?p=AndreSa&f=ACareerqqo1'
p443
aS'http://www.tennisabstract.com/cgi-bin/player.cgi?p=AttilaBalazs&f=ACareerqqo1'
p444
aS'http://www.tennisabstract.com/cgi-bin/player.cgi?p=AndreiPavel&f=ACareerqqo1'
p445
aS'http://www.tennisabstract.com/cgi-bin/player.cgi?p=AdamKennedy&f=ACareerqqo1'
p446
aS'http://www.tennisabstract.com/cgi-bin/player.cgi?p=MiguelGallardoValles&f=ACareerqqo1'
p447
aS'http://www.tennisabstract.com/cgi-bin/player.cgi?p=PhilipBester&f=ACareerqqo1'
p448
aS'http://www.tennisabstract.com/cgi-bin/player.cgi?p=StefanWauters&f=ACareerqqo1'
p449
aS'http://www.tennisabstract.com/cgi-bin/player.cgi?p=JoseRubinStatham&f=ACareerqqo1'
p450
aS'http://www.tennisabstract.com/cgi-bin/player.cgi?p=BrunoEchagaray&f=ACareerqqo1'
p451
aS'http://www.tennisabstract.com/cgi-bin/player.cgi?p=ColinEbelthite&f=ACareerqqo1'
p452
aS'http://www.tennisabstract.com/cgi-bin/player.cgi?p=PhillipSimmonds&f=ACareerqqo1'
p453
aS'http://www.tennisabstract.com/cgi-bin/player.cgi?p=ChristianHarrison&f=ACareerqqo1'
p454
aS'http://www.tennisabstract.com/cgi-bin/player.cgi?p=BrianVahaly&f=ACareerqqo1'
p455
aS'http://www.tennisabstract.com/cgi-bin/player.cgi?p=JacobAdaktusson&f=ACareerqqo1'
p456
aS'http://www.tennisabstract.com/cgi-bin/player.cgi?p=AlexanderPeya&f=ACareerqqo1'
p457
aS'http://www.tennisabstract.com/cgi-bin/player.cgi?p=MiloslavMecir&f=ACareerqqo1'
p458
aS'http://www.tennisabstract.com/cgi-bin/player.cgi?p=YenHsunLu&f=ACareerqqo1'
p459
aS'http://www.tennisabstract.com/cgi-bin/player.cgi?p=EricTaino&f=ACareerqqo1'
p460
aS'http://www.tennisabstract.com/cgi-bin/player.cgi?p=JohnMillman&f=ACareerqqo1'
p461
aS'http://www.tennisabstract.com/cgi-bin/player.cgi?p=CedrikMarcelStebe&f=ACareerqqo1'
p462
aS'http://www.tennisabstract.com/cgi-bin/player.cgi?p=WayneArthurs&f=ACareerqqo1'
p463
aS'http://www.tennisabstract.com/cgi-bin/player.cgi?p=ChristopherDiazFigueroa&f=ACareerqqo1'
p464
aS'http://www.tennisabstract.com/cgi-bin/player.cgi?p=AdamDavidson&f=ACareerqqo1'
p465
aS'http://www.tennisabstract.com/cgi-bin/player.cgi?p=AndreaStoppini&f=ACareerqqo1'
p466
aS'http://www.tennisabstract.com/cgi-bin/player.cgi?p=MatthewBehrmann&f=ACareerqqo1'
p467
aS'http://www.tennisabstract.com/cgi-bin/player.cgi?p=GabrielMontilla&f=ACareerqqo1'
p468
aS'http://www.tennisabstract.com/cgi-bin/player.cgi?p=ChadHarris&f=ACareerqqo1'
p469
aS'http://www.tennisabstract.com/cgi-bin/player.cgi?p=IgorKunitsyn&f=ACareerqqo1'
p470
aS'http://www.tennisabstract.com/cgi-bin/player.cgi?p=StefanoIanni&f=ACareerqqo1'
p471
aS'http://www.tennisabstract.com/cgi-bin/player.cgi?p=JamesWard&f=ACareerqqo1'
p472
aS'http://www.tennisabstract.com/cgi-bin/player.cgi?p=DennisNevolo&f=ACareerqqo1'
p473
aS'http://www.tennisabstract.com/cgi-bin/player.cgi?p=EvgenyKorolev&f=ACareerqqo1'
p474
aS'http://www.tennisabstract.com/cgi-bin/player.cgi?p=GregOuellette&f=ACareerqqo1'
p475
aS'http://www.tennisabstract.com/cgi-bin/player.cgi?p=RicardasBerankis&f=ACareerqqo1'
p476
aS'http://www.tennisabstract.com/cgi-bin/player.cgi?p=CharlesAntoineBrezac&f=ACareerqqo1'
p477
aS'http://www.tennisabstract.com/cgi-bin/player.cgi?p=CecilMamiit&f=ACareerqqo1'
p478
aS'http://www.tennisabstract.com/cgi-bin/player.cgi?p=DanielSmethurst&f=ACareerqqo1'
p479
aS'http://www.tennisabstract.com/cgi-bin/player.cgi?p=AndresPedroso&f=ACareerqqo1'
p480
aS'http://www.tennisabstract.com/cgi-bin/player.cgi?p=MatthewBarton&f=ACareerqqo1'
p481
aS'http://www.tennisabstract.com/cgi-bin/player.cgi?p=MirzaBasic&f=ACareerqqo1'
p482
aS'http://www.tennisabstract.com/cgi-bin/player.cgi?p=ToshihideMatsui&f=ACareerqqo1'
p483
aS'http://www.tennisabstract.com/cgi-bin/player.cgi?p=LeoRosenberg&f=ACareerqqo1'
p484
aS'http://www.tennisabstract.com/cgi-bin/player.cgi?p=NenadToroman&f=ACareerqqo1'
p485
aS'http://www.tennisabstract.com/cgi-bin/player.cgi?p=NicolasTodero&f=ACareerqqo1'
p486
aS'http://www.tennisabstract.com/cgi-bin/player.cgi?p=StefanKoubek&f=ACareerqqo1'
p487
aS'http://www.tennisabstract.com/cgi-bin/player.cgi?p=AmerDelic&f=ACareerqqo1'
p488
aS'http://www.tennisabstract.com/cgi-bin/player.cgi?p=MattReid&f=ACareerqqo1'
p489
aS'http://www.tennisabstract.com/cgi-bin/player.cgi?p=SimoneVagnozzi&f=ACareerqqo1'
p490
aS'http://www.tennisabstract.com/cgi-bin/player.cgi?p=FredericNiemeyer&f=ACareerqqo1'
p491
aS'http://www.tennisabstract.com/cgi-bin/player.cgi?p=AlejandroHernandez&f=ACareerqqo1'
p492
aS'http://www.tennisabstract.com/cgi-bin/player.cgi?p=NicholasMonroe&f=ACareerqqo1'
p493
aS'http://www.tennisabstract.com/cgi-bin/player.cgi?p=TatsumaIto&f=ACareerqqo1'
p494
aS'http://www.tennisabstract.com/cgi-bin/player.cgi?p=DiegoHartfield&f=ACareerqqo1'
p495
aS'http://www.tennisabstract.com/cgi-bin/player.cgi?p=GJones&f=ACareerqqo1'
p496
aS'http://www.tennisabstract.com/cgi-bin/player.cgi?p=PhillipKing&f=ACareerqqo1'
p497
aS'http://www.tennisabstract.com/cgi-bin/player.cgi?p=BojanSzumanski&f=ACareerqqo1'
p498
aS'http://www.tennisabstract.com/cgi-bin/player.cgi?p=SargisSargsian&f=ACareerqqo1'
p499
aS'http://www.tennisabstract.com/cgi-bin/player.cgi?p=NoamOkun&f=ACareerqqo1'
p500
aS'http://www.tennisabstract.com/cgi-bin/player.cgi?p=JosephSirianni&f=ACareerqqo1'
p501
aS'http://www.tennisabstract.com/cgi-bin/player.cgi?p=LesterCook&f=ACareerqqo1'
p502
aS'http://www.tennisabstract.com/cgi-bin/player.cgi?p=IgorSijsling&f=ACareerqqo1'
p503
aS'http://www.tennisabstract.com/cgi-bin/player.cgi?p=BlakeStrode&f=ACareerqqo1'
p504
aS'http://www.tennisabstract.com/cgi-bin/player.cgi?p=MischaZverev&f=ACareerqqo1'
p505
aS'http://www.tennisabstract.com/cgi-bin/player.cgi?p=AdrianMannarino&f=ACareerqqo1'
p506
aS'http://www.tennisabstract.com/cgi-bin/player.cgi?p=IzakVanDerMerwe&f=ACareerqqo1'
p507
aS'http://www.tennisabstract.com/cgi-bin/player.cgi?p=JosselinOuanna&f=ACareerqqo1'
p508
aS'http://www.tennisabstract.com/cgi-bin/player.cgi?p=IlijaBozoljac&f=ACareerqqo1'
p509
aS'http://www.tennisabstract.com/cgi-bin/player.cgi?p=BoHodge&f=ACareerqqo1'
p510
aS'http://www.tennisabstract.com/cgi-bin/player.cgi?p=MarcusSarstrand&f=ACareerqqo1'
p511
aS'http://www.tennisabstract.com/cgi-bin/player.cgi?p=MichaelYani&f=ACareerqqo1'
p512
aS'http://www.tennisabstract.com/cgi-bin/player.cgi?p=AlejandroFalla&f=ACareerqqo1'
p513
aS'http://www.tennisabstract.com/cgi-bin/player.cgi?p=MorganWilson&f=ACareerqqo1'
p514
aS'http://www.tennisabstract.com/cgi-bin/player.cgi?p=GregJones&f=ACareerqqo1'
p515
aS'http://www.tennisabstract.com/cgi-bin/player.cgi?p=SergioGutierrezFerrol&f=ACareerqqo1'
p516
aS'http://www.tennisabstract.com/cgi-bin/player.cgi?p=MichaelMcclune&f=ACareerqqo1'
p517
aS'http://www.tennisabstract.com/cgi-bin/player.cgi?p=MichalMertinak&f=ACareerqqo1'
p518
aS'http://www.tennisabstract.com/cgi-bin/player.cgi?p=AmirWeintraub&f=ACareerqqo1'
p519
aS'http://www.tennisabstract.com/cgi-bin/player.cgi?p=SanamSingh&f=ACareerqqo1'
p520
aS'http://www.tennisabstract.com/cgi-bin/player.cgi?p=DanielEvans&f=ACareerqqo1'
p521
aS'http://www.tennisabstract.com/cgi-bin/player.cgi?p=EricQuigley&f=ACareerqqo1'
p522
aS'http://www.tennisabstract.com/cgi-bin/player.cgi?p=FritzWolmarans&f=ACareerqqo1'
p523
aS'http://www.tennisabstract.com/cgi-bin/player.cgi?p=DudiSela&f=ACareerqqo1'
p524
aS'http://www.tennisabstract.com/cgi-bin/player.cgi?p=TimSmyczek&f=ACareerqqo1'
p525
aS'http://www.tennisabstract.com/cgi-bin/player.cgi?p=SekouBangoura&f=ACareerqqo1'
p526
aS'http://www.tennisabstract.com/cgi-bin/player.cgi?p=AlexanderFlock&f=ACareerqqo1'
p527
aS'http://www.tennisabstract.com/cgi-bin/player.cgi?p=HorstSkoff&f=ACareerqqo1'
p528
aS'http://www.tennisabstract.com/cgi-bin/player.cgi?p=MichihisaOnoda&f=ACareerqqo1'
p529
aS'http://www.tennisabstract.com/cgi-bin/player.cgi?p=ThomasBlake&f=ACareerqqo1'
p530
aS'http://www.tennisabstract.com/cgi-bin/player.cgi?p=TreatConradHuey&f=ACareerqqo1'
p531
aS'http://www.tennisabstract.com/cgi-bin/player.cgi?p=MichaelShabaz&f=ACareerqqo1'
p532
aS'http://www.tennisabstract.com/cgi-bin/player.cgi?p=JarmereJenkins&f=ACareerqqo1'
p533
aS'http://www.tennisabstract.com/cgi-bin/player.cgi?p=HarelLevy&f=ACareerqqo1'
p534
aS'http://www.tennisabstract.com/cgi-bin/player.cgi?p=ClayThompson&f=ACareerqqo1'
p535
aS'http://www.tennisabstract.com/cgi-bin/player.cgi?p=LucaVanni&f=ACareerqqo1'
p536
aS'http://www.tennisabstract.com/cgi-bin/player.cgi?p=IvoMinar&f=ACareerqqo1'
p537
aS'http://www.tennisabstract.com/cgi-bin/player.cgi?p=BorisKurtovic&f=ACareerqqo1'
p538
aS'http://www.tennisabstract.com/cgi-bin/player.cgi?p=BrianWilson&f=ACareerqqo1'
p539
aS'http://www.tennisabstract.com/cgi-bin/player.cgi?p=AndreBegemann&f=ACareerqqo1'
p540
aS'http://www.tennisabstract.com/cgi-bin/player.cgi?p=SteveJohnson&f=ACareerqqo1'
p541
aS'http://www.tennisabstract.com/cgi-bin/player.cgi?p=FrederikNielsen&f=ACareerqqo1'
p542
aS'http://www.tennisabstract.com/cgi-bin/player.cgi?p=LudovicWalter&f=ACareerqqo1'
p543
aS'http://www.tennisabstract.com/cgi-bin/player.cgi?p=BjornRehnquist&f=ACareerqqo1'
p544
aS'http://www.tennisabstract.com/cgi-bin/player.cgi?p=VasekPospisil&f=ACareerqqo1'
p545
aS'http://www.tennisabstract.com/cgi-bin/player.cgi?p=AndrewFitzpatrick&f=ACareerqqo1'
p546
aS'http://www.tennisabstract.com/cgi-bin/player.cgi?p=ChrisMagyary&f=ACareerqqo1'
p547
aS'http://www.tennisabstract.com/cgi-bin/player.cgi?p=RyanHaviland&f=ACareerqqo1'
p548
aS'http://www.tennisabstract.com/cgi-bin/player.cgi?p=JuanPabloBrzezicki&f=ACareerqqo1'
p549
aS'http://www.tennisabstract.com/cgi-bin/player.cgi?p=PaulCapdeville&f=ACareerqqo1'
p550
aS'http://www.tennisabstract.com/cgi-bin/player.cgi?p=AdamElMihdawy&f=ACareerqqo1'
p551
aS'http://www.tennisabstract.com/cgi-bin/player.cgi?p=GlennWeiner&f=ACareerqqo1'
p552
aS'http://www.tennisabstract.com/cgi-bin/player.cgi?p=GeraldMelzer&f=ACareerqqo1'
p553
aS'http://www.tennisabstract.com/cgi-bin/player.cgi?p=KennethCarlsen&f=ACareerqqo1'
p554
aS'http://www.tennisabstract.com/cgi-bin/player.cgi?p=JasonMarshall&f=ACareerqqo1'
p555
aS'http://www.tennisabstract.com/cgi-bin/player.cgi?p=MarceloDemoliner&f=ACareerqqo1'
p556
aS'http://www.tennisabstract.com/cgi-bin/player.cgi?p=ReneHohm&f=ACareerqqo1'
p557
aS'http://www.tennisabstract.com/cgi-bin/player.cgi?p=DavidMartin&f=ACareerqqo1'
p558
aS'http://www.tennisabstract.com/cgi-bin/player.cgi?p=BenjaminMitchell&f=ACareerqqo1'
p559
aS'http://www.tennisabstract.com/cgi-bin/player.cgi?p=MatCloer&f=ACareerqqo1'
p560
aS'http://www.tennisabstract.com/cgi-bin/player.cgi?p=ArpadOdry&f=ACareerqqo1'
p561
aS'http://www.tennisabstract.com/cgi-bin/player.cgi?p=ToddWidom&f=ACareerqqo1'
p562
aS'http://www.tennisabstract.com/cgi-bin/player.cgi?p=JeffMorrison&f=ACareerqqo1'
p563
aS'http://www.tennisabstract.com/cgi-bin/player.cgi?p=MatthiasBachinger&f=ACareerqqo1'
p564
aS'http://www.tennisabstract.com/cgi-bin/player.cgi?p=MatweMiddelkoop&f=ACareerqqo1'
p565
aS'http://www.tennisabstract.com/cgi-bin/player.cgi?p=VincentMillot&f=ACareerqqo1'
p566
aS'http://www.tennisabstract.com/cgi-bin/player.cgi?p=JesseWitten&f=ACareerqqo1'
p567
aS'http://www.tennisabstract.com/cgi-bin/player.cgi?p=KyuTaeIm&f=ACareerqqo1'
p568
aS'http://www.tennisabstract.com/cgi-bin/player.cgi?p=MohammadGhareeb&f=ACareerqqo1'
p569
aS'http://www.tennisabstract.com/cgi-bin/player.cgi?p=MatiasBoeker&f=ACareerqqo1'
p570
aS'http://www.tennisabstract.com/cgi-bin/player.cgi?p=TimPuetz&f=ACareerqqo1'
p571
aS'http://www.tennisabstract.com/cgi-bin/player.cgi?p=HoriaTecau&f=ACareerqqo1'
p572
aS'http://www.tennisabstract.com/cgi-bin/player.cgi?p=TsungHuaYang&f=ACareerqqo1'
p573
aS'http://www.tennisabstract.com/cgi-bin/player.cgi?p=NicolasMeister&f=ACareerqqo1'
p574
aS'http://www.tennisabstract.com/cgi-bin/player.cgi?p=DavidDilucia&f=ACareerqqo1'
p575
aS'http://www.tennisabstract.com/cgi-bin/player.cgi?p=KennyDeSchepper&f=ACareerqqo1'
p576
aS'http://www.tennisabstract.com/cgi-bin/player.cgi?p=SimonLarose&f=ACareerqqo1'
p577
aS'http://www.tennisabstract.com/cgi-bin/player.cgi?p=DennisBloemke&f=ACareerqqo1'
p578
aS'http://www.tennisabstract.com/cgi-bin/player.cgi?p=EddieAcuna&f=ACareerqqo1'
p579
aS'http://www.tennisabstract.com/cgi-bin/player.cgi?p=MarcGicquel&f=ACareerqqo1'
p580
aS'http://www.tennisabstract.com/cgi-bin/player.cgi?p=SebastianRieschick&f=ACareerqqo1'
p581
aS'http://www.tennisabstract.com/cgi-bin/player.cgi?p=CarstenBall&f=ACareerqqo1'
p582
aS'http://www.tennisabstract.com/cgi-bin/player.cgi?p=DylanSeongKwanKim&f=ACareerqqo1'
p583
aS'http://www.tennisabstract.com/cgi-bin/player.cgi?p=ThiagoAlves&f=ACareerqqo1'
p584
aS'http://www.tennisabstract.com/cgi-bin/player.cgi?p=SergeiBubka&f=ACareerqqo1'
p585
aS'http://www.tennisabstract.com/cgi-bin/player.cgi?p=AlbanoOlivetti&f=ACareerqqo1'
p586
aS'http://www.tennisabstract.com/cgi-bin/player.cgi?p=BrianBaker&f=ACareerqqo1'
p587
aS'http://www.tennisabstract.com/cgi-bin/player.cgi?p=ZeZhang&f=ACareerqqo1'
p588
aS'http://www.tennisabstract.com/cgi-bin/player.cgi?p=LukasDlouhy&f=ACareerqqo1'
p589
aS'http://www.tennisabstract.com/cgi-bin/player.cgi?p=PaulGoldstein&f=ACareerqqo1'
p590
aS'http://www.tennisabstract.com/cgi-bin/player.cgi?p=RavenKlaasen&f=ACareerqqo1'
p591
aS'http://www.tennisabstract.com/cgi-bin/player.cgi?p=AlexBogomolovJr&f=ACareerqqo1'
p592
aS'http://www.tennisabstract.com/cgi-bin/player.cgi?p=JurgenZopp&f=ACareerqqo1'
p593
aS'http://www.tennisabstract.com/cgi-bin/player.cgi?p=AndrewPiotrowski&f=ACareerqqo1'
p594
aS'http://www.tennisabstract.com/cgi-bin/player.cgi?p=BradleyKlahn&f=ACareerqqo1'
p595
aS'http://www.tennisabstract.com/cgi-bin/player.cgi?p=SantiagoGonzalez&f=ACareerqqo1'
p596
aS'http://www.tennisabstract.com/cgi-bin/player.cgi?p=DenysMolchanov&f=ACareerqqo1'
p597
aS'http://www.tennisabstract.com/cgi-bin/player.cgi?p=IllyaMarchenko&f=ACareerqqo1'
p598
aS'http://www.tennisabstract.com/cgi-bin/player.cgi?p=ChadCarlson&f=ACareerqqo1'
p599
aS'http://www.tennisabstract.com/cgi-bin/player.cgi?p=WayneOdesnik&f=ACareerqqo1'
p600
aS'http://www.tennisabstract.com/cgi-bin/player.cgi?p=TakuraHappy&f=ACareerqqo1'
p601
aS'http://www.tennisabstract.com/cgi-bin/player.cgi?p=HuntleyMontgomery&f=ACareerqqo1'
p602
aS'http://www.tennisabstract.com/cgi-bin/player.cgi?p=DominikMeffert&f=ACareerqqo1'
p603
aS'http://www.tennisabstract.com/cgi-bin/player.cgi?p=JohnPaulFruttero&f=ACareerqqo1'
p604
aS'http://www.tennisabstract.com/cgi-bin/player.cgi?p=JamesDuckworth&f=ACareerqqo1'
p605
aS'http://www.tennisabstract.com/cgi-bin/player.cgi?p=VictorIonita&f=ACareerqqo1'
p606
aS'http://www.tennisabstract.com/cgi-bin/player.cgi?p=JeffSalzenstein&f=ACareerqqo1'
p607
aS'http://www.tennisabstract.com/cgi-bin/player.cgi?p=JohnPatrickSmith&f=ACareerqqo1'
p608
aS'http://www.tennisabstract.com/cgi-bin/player.cgi?p=GouichiMotomura&f=ACareerqqo1'
p609
aS'http://www.tennisabstract.com/cgi-bin/player.cgi?p=DanielKosakowski&f=ACareerqqo1'
p610
aS'http://www.tennisabstract.com/cgi-bin/player.cgi?p=MichaelVenus&f=ACareerqqo1'
p611
aS'http://www.tennisabstract.com/cgi-bin/player.cgi?p=JanMertl&f=ACareerqqo1'
p612
aS'http://www.tennisabstract.com/cgi-bin/player.cgi?p=ChrisEaton&f=ACareerqqo1'
p613
aS'http://www.tennisabstract.com/cgi-bin/player.cgi?p=ClementReix&f=ACareerqqo1'
p614
aS'http://www.tennisabstract.com/cgi-bin/player.cgi?p=RhyneWilliams&f=ACareerqqo1'
p615
aS'http://www.tennisabstract.com/cgi-bin/player.cgi?p=TodorEnev&f=ACareerqqo1'
p616
aS'http://www.tennisabstract.com/cgi-bin/player.cgi?p=PaulLogtens&f=ACareerqqo1'
p617
aS'http://www.tennisabstract.com/cgi-bin/player.cgi?p=TrippPhillips&f=ACareerqqo1'
p618
aS'http://www.tennisabstract.com/cgi-bin/player.cgi?p=SamuelGroth&f=ACareerqqo1'
p619
aS'http://www.tennisabstract.com/cgi-bin/player.cgi?p=ToddReid&f=ACareerqqo1'
p620
aS'http://www.tennisabstract.com/cgi-bin/player.cgi?p=NickLindahl&f=ACareerqqo1'
p621
aS'http://www.tennisabstract.com/cgi-bin/player.cgi?p=NathanHealey&f=ACareerqqo1'
p622
aS'http://www.tennisabstract.com/cgi-bin/player.cgi?p=BorisPashanski&f=ACareerqqo1'
p623
aS'http://www.tennisabstract.com/cgi-bin/player.cgi?p=AlexClayton&f=ACareerqqo1'
p624
aS'http://www.tennisabstract.com/cgi-bin/player.cgi?p=BrendanEvans&f=ACareerqqo1'
p625
aS'http://www.tennisabstract.com/cgi-bin/player.cgi?p=RicardoHocevar&f=ACareerqqo1'
p626
aS'http://www.tennisabstract.com/cgi-bin/player.cgi?p=MelvynOpDerHeijde&f=ACareerqqo1'
p627
aS'http://www.tennisabstract.com/cgi-bin/player.cgi?p=GustavoKuerten&f=ACareerqqo1'
p628
aS'http://www.tennisabstract.com/cgi-bin/player.cgi?p=TylerHochwalt&f=ACareerqqo1'
p629
aS'http://www.tennisabstract.com/cgi-bin/player.cgi?p=YassirBouyahya&f=ACareerqqo1'
p630
aS'http://www.tennisabstract.com/cgi-bin/player.cgi?p=GuillermoAlcaide&f=ACareerqqo1'
p631
aS'http://www.tennisabstract.com/cgi-bin/player.cgi?p=PereRiba&f=ACareerqqo1'
p632
aS'http://www.tennisabstract.com/cgi-bin/player.cgi?p=FrantisekCermak&f=ACareerqqo1'
p633
aS'http://www.tennisabstract.com/cgi-bin/player.cgi?p=FacundoArguello&f=ACareerqqo1'
p634
aS'http://www.tennisabstract.com/cgi-bin/player.cgi?p=NicoloCotto&f=ACareerqqo1'
p635
aS'http://www.tennisabstract.com/cgi-bin/player.cgi?p=CatalinIonutGard&f=ACareerqqo1'
p636
aS'http://www.tennisabstract.com/cgi-bin/player.cgi?p=CarlosPochGradin&f=ACareerqqo1'
p637
aS'http://www.tennisabstract.com/cgi-bin/player.cgi?p=AlejandroKon&f=ACareerqqo1'
p638
aS'http://www.tennisabstract.com/cgi-bin/player.cgi?p=AdrianMenendezMaceiras&f=ACareerqqo1'
p639
aS'http://www.tennisabstract.com/cgi-bin/player.cgi?p=PeterRispoli&f=ACareerqqo1'
p640
aS'http://www.tennisabstract.com/cgi-bin/player.cgi?p=RenzoOlivo&f=ACareerqqo1'
p641
aS'http://www.tennisabstract.com/cgi-bin/player.cgi?p=RaonyCarvalho&f=ACareerqqo1'
p642
aS'http://www.tennisabstract.com/cgi-bin/player.cgi?p=RobertHodel&f=ACareerqqo1'
p643
aS'http://www.tennisabstract.com/cgi-bin/player.cgi?p=FlavioSaretta&f=ACareerqqo1'
p644
aS'http://www.tennisabstract.com/cgi-bin/player.cgi?p=AdrianGavrila&f=ACareerqqo1'
p645
aS'http://www.tennisabstract.com/cgi-bin/player.cgi?p=JuanPabloGuzman&f=ACareerqqo1'
p646
aS'http://www.tennisabstract.com/cgi-bin/player.cgi?p=JeanMichelDurango&f=ACareerqqo1'
p647
aS'http://www.tennisabstract.com/cgi-bin/player.cgi?p=BartBeks&f=ACareerqqo1'
p648
aS'http://www.tennisabstract.com/cgi-bin/player.cgi?p=MariusZay&f=ACareerqqo1'
p649
aS'http://www.tennisabstract.com/cgi-bin/player.cgi?p=MatteoMarrai&f=ACareerqqo1'
p650
aS'http://www.tennisabstract.com/cgi-bin/player.cgi?p=LukaszKubot&f=ACareerqqo1'
p651
aS'http://www.tennisabstract.com/cgi-bin/player.cgi?p=RicardoChileFonte&f=ACareerqqo1'
p652
aS'http://www.tennisabstract.com/cgi-bin/player.cgi?p=NicolasRenavand&f=ACareerqqo1'
p653
aS'http://www.tennisabstract.com/cgi-bin/player.cgi?p=TrystanMeniane&f=ACareerqqo1'
p654
aS'http://www.tennisabstract.com/cgi-bin/player.cgi?p=SebastianDecoud&f=ACareerqqo1'
p655
aS'http://www.tennisabstract.com/cgi-bin/player.cgi?p=VladislavBondarenko&f=ACareerqqo1'
p656
aS'http://www.tennisabstract.com/cgi-bin/player.cgi?p=JoseAntonioSanchezDeLuna&f=ACareerqqo1'
p657
aS'http://www.tennisabstract.com/cgi-bin/player.cgi?p=VictorEstrella&f=ACareerqqo1'
p658
aS'http://www.tennisabstract.com/cgi-bin/player.cgi?p=GabrielPitta&f=ACareerqqo1'
p659
aS'http://www.tennisabstract.com/cgi-bin/player.cgi?p=PabloSantos&f=ACareerqqo1'
p660
aS'http://www.tennisabstract.com/cgi-bin/player.cgi?p=JulianReister&f=ACareerqqo1'
p661
aS'http://www.tennisabstract.com/cgi-bin/player.cgi?p=LeandroMigani&f=ACareerqqo1'
p662
aS'http://www.tennisabstract.com/cgi-bin/player.cgi?p=SimonGreul&f=ACareerqqo1'
p663
aS'http://www.tennisabstract.com/cgi-bin/player.cgi?p=LionelNoviski&f=ACareerqqo1'
p664
aS'http://www.tennisabstract.com/cgi-bin/player.cgi?p=EduardoPortal&f=ACareerqqo1'
p665
aS'http://www.tennisabstract.com/cgi-bin/player.cgi?p=MarekSemjan&f=ACareerqqo1'
p666
aS'http://www.tennisabstract.com/cgi-bin/player.cgi?p=MatiasOneille&f=ACareerqqo1'
p667
aS'http://www.tennisabstract.com/cgi-bin/player.cgi?p=JasperSmit&f=ACareerqqo1'
p668
aS'http://www.tennisabstract.com/cgi-bin/player.cgi?p=MartinVilarrubi&f=ACareerqqo1'
p669
aS'http://www.tennisabstract.com/cgi-bin/player.cgi?p=AdrianGarcia&f=ACareerqqo1'
p670
aS'http://www.tennisabstract.com/cgi-bin/player.cgi?p=AlessandroCamarco&f=ACareerqqo1'
p671
aS'http://www.tennisabstract.com/cgi-bin/player.cgi?p=FedericoTorresi&f=ACareerqqo1'
p672
aS'http://www.tennisabstract.com/cgi-bin/player.cgi?p=WoongSunJun&f=ACareerqqo1'
p673
aS'http://www.tennisabstract.com/cgi-bin/player.cgi?p=SandorMartinezBreijo&f=ACareerqqo1'
p674
aS'http://www.tennisabstract.com/cgi-bin/player.cgi?p=LucasMachado&f=ACareerqqo1'
p675
aS'http://www.tennisabstract.com/cgi-bin/player.cgi?p=DanielGarza&f=ACareerqqo1'
p676
aS'http://www.tennisabstract.com/cgi-bin/player.cgi?p=RaianLuchici&f=ACareerqqo1'
p677
aS'http://www.tennisabstract.com/cgi-bin/player.cgi?p=PabloGonzalez&f=ACareerqqo1'
p678
aS'http://www.tennisabstract.com/cgi-bin/player.cgi?p=DiegoCristin&f=ACareerqqo1'
p679
aS'http://www.tennisabstract.com/cgi-bin/player.cgi?p=GuilhermeClezar&f=ACareerqqo1'
p680
aS'http://www.tennisabstract.com/cgi-bin/player.cgi?p=AlessandroAccardo&f=ACareerqqo1'
p681
aS'http://www.tennisabstract.com/cgi-bin/player.cgi?p=IphtonLouis&f=ACareerqqo1'
p682
aS'http://www.tennisabstract.com/cgi-bin/player.cgi?p=BartolomeSalvaVidal&f=ACareerqqo1'
p683
aS'http://www.tennisabstract.com/cgi-bin/player.cgi?p=DanielKoellerer&f=ACareerqqo1'
p684
aS'http://www.tennisabstract.com/cgi-bin/player.cgi?p=FedericoCiarrochi&f=ACareerqqo1'
p685
aS'http://www.tennisabstract.com/cgi-bin/player.cgi?p=DavidGuez&f=ACareerqqo1'
p686
aS'http://www.tennisabstract.com/cgi-bin/player.cgi?p=DiegoJunqueira&f=ACareerqqo1'
p687
aS'http://www.tennisabstract.com/cgi-bin/player.cgi?p=MarcioTorres&f=ACareerqqo1'
p688
aS'http://www.tennisabstract.com/cgi-bin/player.cgi?p=JamieBaker&f=ACareerqqo1'
p689
aS'http://www.tennisabstract.com/cgi-bin/player.cgi?p=GustavoMarcaccio&f=ACareerqqo1'
p690
aS'http://www.tennisabstract.com/cgi-bin/player.cgi?p=SatGalan&f=ACareerqqo1'
p691
aS'http://www.tennisabstract.com/cgi-bin/player.cgi?p=RohanBopanna&f=ACareerqqo1'
p692
aS'http://www.tennisabstract.com/cgi-bin/player.cgi?p=AlinAlexandruSimion&f=ACareerqqo1'
p693
aS'http://www.tennisabstract.com/cgi-bin/player.cgi?p=FranciscoOlivares&f=ACareerqqo1'
p694
aS'http://www.tennisabstract.com/cgi-bin/player.cgi?p=CesarRamirez&f=ACareerqqo1'
p695
aS'http://www.tennisabstract.com/cgi-bin/player.cgi?p=FrancoFerreiro&f=ACareerqqo1'
p696
aS'http://www.tennisabstract.com/cgi-bin/player.cgi?p=IvoKlec&f=ACareerqqo1'
p697
aS'http://www.tennisabstract.com/cgi-bin/player.cgi?p=EldadCampbell&f=ACareerqqo1'
p698
aS'http://www.tennisabstract.com/cgi-bin/player.cgi?p=MartinSlanar&f=ACareerqqo1'
p699
aS'http://www.tennisabstract.com/cgi-bin/player.cgi?p=AndresMolteni&f=ACareerqqo1'
p700
aS'http://www.tennisabstract.com/cgi-bin/player.cgi?p=ArtemonApostuEfremov&f=ACareerqqo1'
p701
aS'http://www.tennisabstract.com/cgi-bin/player.cgi?p=RodrigoCarvalho&f=ACareerqqo1'
p702
aS'http://www.tennisabstract.com/cgi-bin/player.cgi?p=MashiskaWashington&f=ACareerqqo1'
p703
aS'http://www.tennisabstract.com/cgi-bin/player.cgi?p=JesseHutaGalung&f=ACareerqqo1'
p704
aS'http://www.tennisabstract.com/cgi-bin/player.cgi?p=TaroDaniel&f=ACareerqqo1'
p705
aS'http://www.tennisabstract.com/cgi-bin/player.cgi?p=PatricioRudi&f=ACareerqqo1'
p706
aS'http://www.tennisabstract.com/cgi-bin/player.cgi?p=JonathanChu&f=ACareerqqo1'
p707
aS'http://www.tennisabstract.com/cgi-bin/player.cgi?p=EmilioDanielBaezBritez&f=ACareerqqo1'
p708
aS'http://www.tennisabstract.com/cgi-bin/player.cgi?p=AlbertoBrizzi&f=ACareerqqo1'
p709
aS'http://www.tennisabstract.com/cgi-bin/player.cgi?p=SeboKiss&f=ACareerqqo1'
p710
aS'http://www.tennisabstract.com/cgi-bin/player.cgi?p=GuillermoHormazabal&f=ACareerqqo1'
p711
aS'http://www.tennisabstract.com/cgi-bin/player.cgi?p=NicolasCoutelot&f=ACareerqqo1'
p712
aS'http://www.tennisabstract.com/cgi-bin/player.cgi?p=AlexandruRaulLazar&f=ACareerqqo1'
p713
aS'http://www.tennisabstract.com/cgi-bin/player.cgi?p=MorganPhillips&f=ACareerqqo1'
p714
aS'http://www.tennisabstract.com/cgi-bin/player.cgi?p=JeanJulienRojer&f=ACareerqqo1'
p715
aS'http://www.tennisabstract.com/cgi-bin/player.cgi?p=ToddPaul&f=ACareerqqo1'
p716
aS'http://www.tennisabstract.com/cgi-bin/player.cgi?p=VictorCrivoi&f=ACareerqqo1'
p717
aS'http://www.tennisabstract.com/cgi-bin/player.cgi?p=JulioSilva&f=ACareerqqo1'
p718
aS'http://www.tennisabstract.com/cgi-bin/player.cgi?p=JozefKovalik&f=ACareerqqo1'
p719
aS'http://www.tennisabstract.com/cgi-bin/player.cgi?p=JulioCesarCampozano&f=ACareerqqo1'
p720
aS'http://www.tennisabstract.com/cgi-bin/player.cgi?p=MatteoMarfia&f=ACareerqqo1'
p721
aS'http://www.tennisabstract.com/cgi-bin/player.cgi?p=VictorMugurelAnagnastopol&f=ACareerqqo1'
p722
aS'http://www.tennisabstract.com/cgi-bin/player.cgi?p=ChristopherRoman&f=ACareerqqo1'
p723
aS'http://www.tennisabstract.com/cgi-bin/player.cgi?p=GiorgioGalimberti&f=ACareerqqo1'
p724
aS'http://www.tennisabstract.com/cgi-bin/player.cgi?p=RichardBloomfield&f=ACareerqqo1'
p725
aS'http://www.tennisabstract.com/cgi-bin/player.cgi?p=AlejandroGonzalez&f=ACareerqqo1'
p726
aS'http://www.tennisabstract.com/cgi-bin/player.cgi?p=PabloGaldon&f=ACareerqqo1'
p727
aS'http://www.tennisabstract.com/cgi-bin/player.cgi?p=FedericoRodriguez&f=ACareerqqo1'
p728
aS'http://www.tennisabstract.com/cgi-bin/player.cgi?p=GuidoAndreozzi&f=ACareerqqo1'
p729
aS'http://www.tennisabstract.com/cgi-bin/player.cgi?p=LeonelAlberti&f=ACareerqqo1'
p730
aS'http://www.tennisabstract.com/cgi-bin/player.cgi?p=AndreaFalgheri&f=ACareerqqo1'
p731
aS'http://www.tennisabstract.com/cgi-bin/player.cgi?p=AleksandrNedovyesov&f=ACareerqqo1'
p732
aS'http://www.tennisabstract.com/cgi-bin/player.cgi?p=JuanMartinAranguren&f=ACareerqqo1'
p733
aS'http://www.tennisabstract.com/cgi-bin/player.cgi?p=PavolCervenak&f=ACareerqqo1'
p734
aS'http://www.tennisabstract.com/cgi-bin/player.cgi?p=JeanChristopheFaurel&f=ACareerqqo1'
p735
aS'http://www.tennisabstract.com/cgi-bin/player.cgi?p=MatteoViola&f=ACareerqqo1'
p736
aS'http://www.tennisabstract.com/cgi-bin/player.cgi?p=MauricioEchazu&f=ACareerqqo1'
p737
aS'http://www.tennisabstract.com/cgi-bin/player.cgi?p=KonstantinosEconomidis&f=ACareerqqo1'
p738
aS'http://www.tennisabstract.com/cgi-bin/player.cgi?p=RodrigoGomezSaigos&f=ACareerqqo1'
p739
aS'http://www.tennisabstract.com/cgi-bin/player.cgi?p=InigoCervantesHuegun&f=ACareerqqo1'
p740
aS'http://www.tennisabstract.com/cgi-bin/player.cgi?p=JuanDeArmas&f=ACareerqqo1'
p741
aS'http://www.tennisabstract.com/cgi-bin/player.cgi?p=RodrigoGuidolin&f=ACareerqqo1'
p742
aS'http://www.tennisabstract.com/cgi-bin/player.cgi?p=JoseHernandez&f=ACareerqqo1'
p743
aS'http://www.tennisabstract.com/cgi-bin/player.cgi?p=AdrianBarbu&f=ACareerqqo1'
p744
aS'http://www.tennisabstract.com/cgi-bin/player.cgi?p=JoseRobertoVelasco&f=ACareerqqo1'
p745
aS'http://www.tennisabstract.com/cgi-bin/player.cgi?p=DavidMarrero&f=ACareerqqo1'
p746
aS'http://www.tennisabstract.com/cgi-bin/player.cgi?p=PeterPolansky&f=ACareerqqo1'
p747
aS'http://www.tennisabstract.com/cgi-bin/player.cgi?p=MatteoDonati&f=ACareerqqo1'
p748
aS'http://www.tennisabstract.com/cgi-bin/player.cgi?p=LaurentRochette&f=ACareerqqo1'
p749
aS'http://www.tennisabstract.com/cgi-bin/player.cgi?p=YohnyRomero&f=ACareerqqo1'
p750
aS'http://www.tennisabstract.com/cgi-bin/player.cgi?p=HenriquePintoSilva&f=ACareerqqo1'
p751
aS'http://www.tennisabstract.com/cgi-bin/player.cgi?p=AgustinVelotti&f=ACareerqqo1'
p752
aS'http://www.tennisabstract.com/cgi-bin/player.cgi?p=DanielAlejandroLopezCassaccia&f=ACareerqqo1'
p753
aS'http://www.tennisabstract.com/cgi-bin/player.cgi?p=EmilianoRedondi&f=ACareerqqo1'
p754
aS'http://www.tennisabstract.com/cgi-bin/player.cgi?p=MichelKoning&f=ACareerqqo1'
p755
aS'http://www.tennisabstract.com/cgi-bin/player.cgi?p=EricGomes&f=ACareerqqo1'
p756
aS'http://www.tennisabstract.com/cgi-bin/player.cgi?p=CosminCotet&f=ACareerqqo1'
p757
aS'http://www.tennisabstract.com/cgi-bin/player.cgi?p=MarselIlhan&f=ACareerqqo1'
p758
aS'http://www.tennisabstract.com/cgi-bin/player.cgi?p=BertrandMadsen&f=ACareerqqo1'
p759
aS'http://www.tennisabstract.com/cgi-bin/player.cgi?p=FedericoCoria&f=ACareerqqo1'
p760
aS'http://www.tennisabstract.com/cgi-bin/player.cgi?p=CarlosAvellan&f=ACareerqqo1'
p761
aS'http://www.tennisabstract.com/cgi-bin/player.cgi?p=DiegoCubas&f=ACareerqqo1'
p762
aS'http://www.tennisabstract.com/cgi-bin/player.cgi?p=JoseManuelGarciaRodriguez&f=ACareerqqo1'
p763
aS'http://www.tennisabstract.com/cgi-bin/player.cgi?p=StephanFransen&f=ACareerqqo1'
p764
aS'http://www.tennisabstract.com/cgi-bin/player.cgi?p=PieroLuisi&f=ACareerqqo1'
p765
aS'http://www.tennisabstract.com/cgi-bin/player.cgi?p=JeroenMasson&f=ACareerqqo1'
p766
aS'http://www.tennisabstract.com/cgi-bin/player.cgi?p=AdrianUngur&f=ACareerqqo1'
p767
aS'http://www.tennisabstract.com/cgi-bin/player.cgi?p=AlessandroGravina&f=ACareerqqo1'
p768
aS'http://www.tennisabstract.com/cgi-bin/player.cgi?p=MaximoGonzalez&f=ACareerqqo1'
p769
aS'http://www.tennisabstract.com/cgi-bin/player.cgi?p=JulienJeanpierre&f=ACareerqqo1'
p770
aS'http://www.tennisabstract.com/cgi-bin/player.cgi?p=LeonardoTavares&f=ACareerqqo1'
p771
aS'http://www.tennisabstract.com/cgi-bin/player.cgi?p=JuanPabloVillar&f=ACareerqqo1'
p772
aS'http://www.tennisabstract.com/cgi-bin/player.cgi?p=AlejandroFabbri&f=ACareerqqo1'
p773
aS'http://www.tennisabstract.com/cgi-bin/player.cgi?p=EdgardoMassa&f=ACareerqqo1'
p774
aS'http://www.tennisabstract.com/cgi-bin/player.cgi?p=AdrianCruciat&f=ACareerqqo1'
p775
aS'http://www.tennisabstract.com/cgi-bin/player.cgi?p=GuillermoBujniewicz&f=ACareerqqo1'
p776
aS'http://www.tennisabstract.com/cgi-bin/player.cgi?p=MichaelQuintero&f=ACareerqqo1'
p777
aS'http://www.tennisabstract.com/cgi-bin/player.cgi?p=CristianVillagran&f=ACareerqqo1'
p778
aS'http://www.tennisabstract.com/cgi-bin/player.cgi?p=SebastianUriarte&f=ACareerqqo1'
p779
aS'http://www.tennisabstract.com/cgi-bin/player.cgi?p=RomanBorvanov&f=ACareerqqo1'
p780
aS'http://www.tennisabstract.com/cgi-bin/player.cgi?p=AlejandroPrada&f=ACareerqqo1'
p781
aS'http://www.tennisabstract.com/cgi-bin/player.cgi?p=NicolasBarrientos&f=ACareerqqo1'
p782
aS'http://www.tennisabstract.com/cgi-bin/player.cgi?p=DustinBrown&f=ACareerqqo1'
p783
aS'http://www.tennisabstract.com/cgi-bin/player.cgi?p=OlegOgorodov&f=ACareerqqo1'
p784
aS'http://www.tennisabstract.com/cgi-bin/player.cgi?p=AntonioRuizRosales&f=ACareerqqo1'
p785
aS'http://www.tennisabstract.com/cgi-bin/player.cgi?p=PrakashAmritraj&f=ACareerqqo1'
p786
aS'http://www.tennisabstract.com/cgi-bin/player.cgi?p=JonathanErlich&f=ACareerqqo1'
p787
aS'http://www.tennisabstract.com/cgi-bin/player.cgi?p=NicolasThomann&f=ACareerqqo1'
p788
aS'http://www.tennisabstract.com/cgi-bin/player.cgi?p=SherifSabry&f=ACareerqqo1'
p789
aS'http://www.tennisabstract.com/cgi-bin/player.cgi?p=BertVanDriessen&f=ACareerqqo1'
p790
aS'http://www.tennisabstract.com/cgi-bin/player.cgi?p=AlexanderSatschko&f=ACareerqqo1'
p791
aS'http://www.tennisabstract.com/cgi-bin/player.cgi?p=MartinPrikryl&f=ACareerqqo1'
p792
aS'http://www.tennisabstract.com/cgi-bin/player.cgi?p=AdrienPuget&f=ACareerqqo1'
p793
aS'http://www.tennisabstract.com/cgi-bin/player.cgi?p=MiguelAngelReyesVarela&f=ACareerqqo1'
p794
aS'http://www.tennisabstract.com/cgi-bin/player.cgi?p=NathanielSchnugg&f=ACareerqqo1'
p795
aS'http://www.tennisabstract.com/cgi-bin/player.cgi?p=ParisGemouchidis&f=ACareerqqo1'
p796
aS'http://www.tennisabstract.com/cgi-bin/player.cgi?p=CyrilSaulnier&f=ACareerqqo1'
p797
aS'http://www.tennisabstract.com/cgi-bin/player.cgi?p=RuiMachado&f=ACareerqqo1'
p798
aS'http://www.tennisabstract.com/cgi-bin/player.cgi?p=FedericoLuzzi&f=ACareerqqo1'
p799
aS'http://www.tennisabstract.com/cgi-bin/player.cgi?p=AndreasVinciguerra&f=ACareerqqo1'
p800
aS'http://www.tennisabstract.com/cgi-bin/player.cgi?p=TravisHelgeson&f=ACareerqqo1'
p801
aS'http://www.tennisabstract.com/cgi-bin/player.cgi?p=MohamedMamoun&f=ACareerqqo1'
p802
aS'http://www.tennisabstract.com/cgi-bin/player.cgi?p=StephenNugent&f=ACareerqqo1'
p803
aS'http://www.tennisabstract.com/cgi-bin/player.cgi?p=PedjaKrstin&f=ACareerqqo1'
p804
aS'http://www.tennisabstract.com/cgi-bin/player.cgi?p=MartinFischer&f=ACareerqqo1'
p805
aS'http://www.tennisabstract.com/cgi-bin/player.cgi?p=SarvarIkramov&f=ACareerqqo1'
p806
aS'http://www.tennisabstract.com/cgi-bin/player.cgi?p=SonchatRatiwatana&f=ACareerqqo1'
p807
aS'http://www.tennisabstract.com/cgi-bin/player.cgi?p=NickCrawley&f=ACareerqqo1'
p808
aS'http://www.tennisabstract.com/cgi-bin/player.cgi?p=ClementMorel&f=ACareerqqo1'
p809
aS'http://www.tennisabstract.com/cgi-bin/player.cgi?p=UrosVico&f=ACareerqqo1'
p810
aS'http://www.tennisabstract.com/cgi-bin/player.cgi?p=JanneOjala&f=ACareerqqo1'
p811
aS'http://www.tennisabstract.com/cgi-bin/player.cgi?p=JanFrodeAndersen&f=ACareerqqo1'
p812
aS'http://www.tennisabstract.com/cgi-bin/player.cgi?p=GaryLugassy&f=ACareerqqo1'
p813
aS'http://www.tennisabstract.com/cgi-bin/player.cgi?p=ChristopherKoutrouzas&f=ACareerqqo1'
p814
aS'http://www.tennisabstract.com/cgi-bin/player.cgi?p=KarimMaamoun&f=ACareerqqo1'
p815
aS'http://www.tennisabstract.com/cgi-bin/player.cgi?p=AndreiLuzgin&f=ACareerqqo1'
p816
aS'http://www.tennisabstract.com/cgi-bin/player.cgi?p=HishamHemeda&f=ACareerqqo1'
p817
aS'http://www.tennisabstract.com/cgi-bin/player.cgi?p=DimitarKutrovsky&f=ACareerqqo1'
p818
aS'http://www.tennisabstract.com/cgi-bin/player.cgi?p=RegisLavergne&f=ACareerqqo1'
p819
aS'http://www.tennisabstract.com/cgi-bin/player.cgi?p=MichaelLammer&f=ACareerqqo1'
p820
aS'http://www.tennisabstract.com/cgi-bin/player.cgi?p=RemcoPondman&f=ACareerqqo1'
p821
aS'http://www.tennisabstract.com/cgi-bin/player.cgi?p=YvesAllegro&f=ACareerqqo1'
p822
aS'http://www.tennisabstract.com/cgi-bin/player.cgi?p=TomasJanci&f=ACareerqqo1'
p823
aS'http://www.tennisabstract.com/cgi-bin/player.cgi?p=DickNorman&f=ACareerqqo1'
p824
aS'http://www.tennisabstract.com/cgi-bin/player.cgi?p=JeanSegodo&f=ACareerqqo1'
p825
aS'http://www.tennisabstract.com/cgi-bin/player.cgi?p=JoshuaCohen&f=ACareerqqo1'
p826
aS'http://www.tennisabstract.com/cgi-bin/player.cgi?p=YounesRachidi&f=ACareerqqo1'
p827
aS'http://www.tennisabstract.com/cgi-bin/player.cgi?p=PatrickCiorcila&f=ACareerqqo1'
p828
aS'http://www.tennisabstract.com/cgi-bin/player.cgi?p=LiangChiHuang&f=ACareerqqo1'
p829
aS'http://www.tennisabstract.com/cgi-bin/player.cgi?p=StephaneBohli&f=ACareerqqo1'
p830
aS'http://www.tennisabstract.com/cgi-bin/player.cgi?p=GlebAlekseenko&f=ACareerqqo1'
p831
aS'http://www.tennisabstract.com/cgi-bin/player.cgi?p=IgnacioGonzalezKing&f=ACareerqqo1'
p832
aS'http://www.tennisabstract.com/cgi-bin/player.cgi?p=DanaiUdomchoke&f=ACareerqqo1'
p833
aS'http://www.tennisabstract.com/cgi-bin/player.cgi?p=GlenBertram&f=ACareerqqo1'
p834
aS'http://www.tennisabstract.com/cgi-bin/player.cgi?p=GoncaloFigueiredo&f=ACareerqqo1'
p835
aS'http://www.tennisabstract.com/cgi-bin/player.cgi?p=EvgenyKirillov&f=ACareerqqo1'
p836
aS'http://www.tennisabstract.com/cgi-bin/player.cgi?p=FranciscoFogues&f=ACareerqqo1'
p837
aS'http://www.tennisabstract.com/cgi-bin/player.cgi?p=ShaoXuanZeng&f=ACareerqqo1'
p838
aS'http://www.tennisabstract.com/cgi-bin/player.cgi?p=JaeSungAn&f=ACareerqqo1'
p839
aS'http://www.tennisabstract.com/cgi-bin/player.cgi?p=SasaTuksar&f=ACareerqqo1'
p840
aS'http://www.tennisabstract.com/cgi-bin/player.cgi?p=DevinBritton&f=ACareerqqo1'
p841
aS'http://www.tennisabstract.com/cgi-bin/player.cgi?p=DennisVanScheppingen&f=ACareerqqo1'
p842
aS'http://www.tennisabstract.com/cgi-bin/player.cgi?p=MarcRosset&f=ACareerqqo1'
p843
aS'http://www.tennisabstract.com/cgi-bin/player.cgi?p=VincenzoSantopadre&f=ACareerqqo1'
p844
aS'http://www.tennisabstract.com/cgi-bin/player.cgi?p=FedericoDondo&f=ACareerqqo1'
p845
aS'http://www.tennisabstract.com/cgi-bin/player.cgi?p=RobertSmeets&f=ACareerqqo1'
p846
aS'http://www.tennisabstract.com/cgi-bin/player.cgi?p=HenriKontinen&f=ACareerqqo1'
p847
aS'http://www.tennisabstract.com/cgi-bin/player.cgi?p=SamiHuurinainen&f=ACareerqqo1'
p848
aS'http://www.tennisabstract.com/cgi-bin/player.cgi?p=FlorinMergea&f=ACareerqqo1'
p849
aS'http://www.tennisabstract.com/cgi-bin/player.cgi?p=CharlesRoche&f=ACareerqqo1'
p850
aS'http://www.tennisabstract.com/cgi-bin/player.cgi?p=SultanKhalfan&f=ACareerqqo1'
p851
aS'http://www.tennisabstract.com/cgi-bin/player.cgi?p=FebiWidhiyanto&f=ACareerqqo1'
p852
aS'http://www.tennisabstract.com/cgi-bin/player.cgi?p=JosephLizardo&f=ACareerqqo1'
p853
aS'http://www.tennisabstract.com/cgi-bin/player.cgi?p=WeiJenCheng&f=ACareerqqo1'
p854
aS'http://www.tennisabstract.com/cgi-bin/player.cgi?p=YordanKanev&f=ACareerqqo1'
p855
aS'http://www.tennisabstract.com/cgi-bin/player.cgi?p=BenjaminRufer&f=ACareerqqo1'
p856
aS'http://www.tennisabstract.com/cgi-bin/player.cgi?p=EdouardRogerVasselin&f=ACareerqqo1'
p857
aS'http://www.tennisabstract.com/cgi-bin/player.cgi?p=FranckFevrier&f=ACareerqqo1'
p858
aS'http://www.tennisabstract.com/cgi-bin/player.cgi?p=AndreyKumantsov&f=ACareerqqo1'
p859
aS'http://www.tennisabstract.com/cgi-bin/player.cgi?p=YuryVaschenko&f=ACareerqqo1'
p860
aS'http://www.tennisabstract.com/cgi-bin/player.cgi?p=DavidBrewer&f=ACareerqqo1'
p861
aS'http://www.tennisabstract.com/cgi-bin/player.cgi?p=ChristopherWesterhof&f=ACareerqqo1'
p862
aS'http://www.tennisabstract.com/cgi-bin/player.cgi?p=IliaKushev&f=ACareerqqo1'
p863
aS'http://www.tennisabstract.com/cgi-bin/player.cgi?p=OrlinStanoytchev&f=ACareerqqo1'
p864
aS'http://www.tennisabstract.com/cgi-bin/player.cgi?p=KamilCapkovic&f=ACareerqqo1'
p865
aS'http://www.tennisabstract.com/cgi-bin/player.cgi?p=LubomirMajsajdr&f=ACareerqqo1'
p866
aS'http://www.tennisabstract.com/cgi-bin/player.cgi?p=MarcRath&f=ACareerqqo1'
p867
aS'http://www.tennisabstract.com/cgi-bin/player.cgi?p=StevenDiez&f=ACareerqqo1'
p868
aS'http://www.tennisabstract.com/cgi-bin/player.cgi?p=MarcoChiudinelli&f=ACareerqqo1'
p869
aS'http://www.tennisabstract.com/cgi-bin/player.cgi?p=MikhailLew&f=ACareerqqo1'
p870
aS'http://www.tennisabstract.com/cgi-bin/player.cgi?p=JanVacek&f=ACareerqqo1'
p871
aS'http://www.tennisabstract.com/cgi-bin/player.cgi?p=PredragRusevski&f=ACareerqqo1'
p872
aS'http://www.tennisabstract.com/cgi-bin/player.cgi?p=KCorkery&f=ACareerqqo1'
p873
aS'http://www.tennisabstract.com/cgi-bin/player.cgi?p=ChristianJohansson&f=ACareerqqo1'
p874
aS'http://www.tennisabstract.com/cgi-bin/player.cgi?p=PetrKralert&f=ACareerqqo1'
p875
aS'http://www.tennisabstract.com/cgi-bin/player.cgi?p=AlexandreSidorenko&f=ACareerqqo1'
p876
aS'http://www.tennisabstract.com/cgi-bin/player.cgi?p=RafaelArevalo&f=ACareerqqo1'
p877
aS'http://www.tennisabstract.com/cgi-bin/player.cgi?p=AndreyKuznetsov&f=ACareerqqo1'
p878
aS'http://www.tennisabstract.com/cgi-bin/player.cgi?p=MohamedSafwat&f=ACareerqqo1'
p879
aS'http://www.tennisabstract.com/cgi-bin/player.cgi?p=BarryKing&f=ACareerqqo1'
p880
aS'http://www.tennisabstract.com/cgi-bin/player.cgi?p=LewisBurton&f=ACareerqqo1'
p881
aS'http://www.tennisabstract.com/cgi-bin/player.cgi?p=JanWeinzierl&f=ACareerqqo1'
p882
aS'http://www.tennisabstract.com/cgi-bin/player.cgi?p=JamilAlAgba&f=ACareerqqo1'
p883
aS'http://www.tennisabstract.com/cgi-bin/player.cgi?p=AlexMiotto&f=ACareerqqo1'
p884
aS'http://www.tennisabstract.com/cgi-bin/player.cgi?p=AlexanderKudryavtsev&f=ACareerqqo1'
p885
aS'http://www.tennisabstract.com/cgi-bin/player.cgi?p=MichalNavratil&f=ACareerqqo1'
p886
aS'http://www.tennisabstract.com/cgi-bin/player.cgi?p=AisamUlHaqQureshi&f=ACareerqqo1'
p887
aS'http://www.tennisabstract.com/cgi-bin/player.cgi?p=JeremyBlandin&f=ACareerqqo1'
p888
aS'http://www.tennisabstract.com/cgi-bin/player.cgi?p=PetrMasek&f=ACareerqqo1'
p889
aS'http://www.tennisabstract.com/cgi-bin/player.cgi?p=BranislavSekac&f=ACareerqqo1'
p890
aS'http://www.tennisabstract.com/cgi-bin/player.cgi?p=MarcelloCraca&f=ACareerqqo1'
p891
aS'http://www.tennisabstract.com/cgi-bin/player.cgi?p=GiovanniLapentti&f=ACareerqqo1'
p892
aS'http://www.tennisabstract.com/cgi-bin/player.cgi?p=TraceFielding&f=ACareerqqo1'
p893
aS'http://www.tennisabstract.com/cgi-bin/player.cgi?p=LouisVosloo&f=ACareerqqo1'
p894
aS'http://www.tennisabstract.com/cgi-bin/player.cgi?p=DavidGoffin&f=ACareerqqo1'
p895
aS'http://www.tennisabstract.com/cgi-bin/player.cgi?p=DavorGrgic&f=ACareerqqo1'
p896
aS'http://www.tennisabstract.com/cgi-bin/player.cgi?p=AndrejKrasevec&f=ACareerqqo1'
p897
aS'http://www.tennisabstract.com/cgi-bin/player.cgi?p=ChristopheBosio&f=ACareerqqo1'
p898
aS'http://www.tennisabstract.com/cgi-bin/player.cgi?p=PavelSnobel&f=ACareerqqo1'
p899
aS'http://www.tennisabstract.com/cgi-bin/player.cgi?p=IvanBeros&f=ACareerqqo1'
p900
aS'http://www.tennisabstract.com/cgi-bin/player.cgi?p=VilleLiukko&f=ACareerqqo1'
p901
aS'http://www.tennisabstract.com/cgi-bin/player.cgi?p=MarcKevinGoellner&f=ACareerqqo1'
p902
aS'http://www.tennisabstract.com/cgi-bin/player.cgi?p=DarkoMadjarovski&f=ACareerqqo1'
p903
aS'http://www.tennisabstract.com/cgi-bin/player.cgi?p=YassineIdmbarek&f=ACareerqqo1'
p904
aS'http://www.tennisabstract.com/cgi-bin/player.cgi?p=BlazKavcic&f=ACareerqqo1'
p905
aS'http://www.tennisabstract.com/cgi-bin/player.cgi?p=MarkoTkalec&f=ACareerqqo1'
p906
aS'http://www.tennisabstract.com/cgi-bin/player.cgi?p=MaitKunnap&f=ACareerqqo1'
p907
aS'http://www.tennisabstract.com/cgi-bin/player.cgi?p=KrystianPfeiffer&f=ACareerqqo1'
p908
aS'http://www.tennisabstract.com/cgi-bin/player.cgi?p=PeterCapkovic&f=ACareerqqo1'
p909
aS'http://www.tennisabstract.com/cgi-bin/player.cgi?p=JustinBower&f=ACareerqqo1'
p910
aS'http://www.tennisabstract.com/cgi-bin/player.cgi?p=MarkusBayer&f=ACareerqqo1'
p911
aS'http://www.tennisabstract.com/cgi-bin/player.cgi?p=MikeScheidweiler&f=ACareerqqo1'
p912
aS'http://www.tennisabstract.com/cgi-bin/player.cgi?p=TzvetanMihov&f=ACareerqqo1'
p913
aS'http://www.tennisabstract.com/cgi-bin/player.cgi?p=ThomasOger&f=ACareerqqo1'
p914
aS'http://www.tennisabstract.com/cgi-bin/player.cgi?p=GregaZemlja&f=ACareerqqo1'
p915
aS'http://www.tennisabstract.com/cgi-bin/player.cgi?p=JoshuaGoodall&f=ACareerqqo1'
p916
aS'http://www.tennisabstract.com/cgi-bin/player.cgi?p=EvgenyDonskoy&f=ACareerqqo1'
p917
aS'http://www.tennisabstract.com/cgi-bin/player.cgi?p=SimonStadler&f=ACareerqqo1'
p918
aS'http://www.tennisabstract.com/cgi-bin/player.cgi?p=AntoineBenneteau&f=ACareerqqo1'
p919
aS'http://www.tennisabstract.com/cgi-bin/player.cgi?p=MickLescure&f=ACareerqqo1'
p920
aS'http://www.tennisabstract.com/cgi-bin/player.cgi?p=RadoslavLukaev&f=ACareerqqo1'
p921
aS'http://www.tennisabstract.com/cgi-bin/player.cgi?p=ZbynekMlynarik&f=ACareerqqo1'
p922
aS'http://www.tennisabstract.com/cgi-bin/player.cgi?p=JonathanHilaire&f=ACareerqqo1'
p923
aS'http://www.tennisabstract.com/cgi-bin/player.cgi?p=JuanFelipeYanez&f=ACareerqqo1'
p924
aS'http://www.tennisabstract.com/cgi-bin/player.cgi?p=ConorNiland&f=ACareerqqo1'
p925
aS'http://www.tennisabstract.com/cgi-bin/player.cgi?p=GiovanniBottai&f=ACareerqqo1'
p926
aS'http://www.tennisabstract.com/cgi-bin/player.cgi?p=AlexanderBlom&f=ACareerqqo1'
p927
aS'http://www.tennisabstract.com/cgi-bin/player.cgi?p=JuhoPaukku&f=ACareerqqo1'
p928
aS'http://www.tennisabstract.com/cgi-bin/player.cgi?p=JamieDelgado&f=ACareerqqo1'
p929
aS'http://www.tennisabstract.com/cgi-bin/player.cgi?p=LefterisAlexiou&f=ACareerqqo1'
p930
aS'http://www.tennisabstract.com/cgi-bin/player.cgi?p=AndrewAnderson&f=ACareerqqo1'
p931
aS'http://www.tennisabstract.com/cgi-bin/player.cgi?p=LovroZovko&f=ACareerqqo1'
p932
aS'http://www.tennisabstract.com/cgi-bin/player.cgi?p=OlivierCharroin&f=ACareerqqo1'
p933
aS'http://www.tennisabstract.com/cgi-bin/player.cgi?p=GiorgioProuse&f=ACareerqqo1'
p934
aS'http://www.tennisabstract.com/cgi-bin/player.cgi?p=JuanAlbertVilocaPuig&f=ACareerqqo1'
p935
aS'http://www.tennisabstract.com/cgi-bin/player.cgi?p=AndreasHaiderMaurer&f=ACareerqqo1'
p936
aS'http://www.tennisabstract.com/cgi-bin/player.cgi?p=JuanManuelElizondo&f=ACareerqqo1'
p937
aS'http://www.tennisabstract.com/cgi-bin/player.cgi?p=HalukAkkoyun&f=ACareerqqo1'
p938
aS'http://www.tennisabstract.com/cgi-bin/player.cgi?p=TobiasClemens&f=ACareerqqo1'
p939
aS'http://www.tennisabstract.com/cgi-bin/player.cgi?p=HelgeKoll&f=ACareerqqo1'
p940
aS'http://www.tennisabstract.com/cgi-bin/player.cgi?p=DirkDier&f=ACareerqqo1'
p941
aS'http://www.tennisabstract.com/cgi-bin/player.cgi?p=JoshGoffi&f=ACareerqqo1'
p942
aS'http://www.tennisabstract.com/cgi-bin/player.cgi?p=CedricKauffmann&f=ACareerqqo1'
p943
aS'http://www.tennisabstract.com/cgi-bin/player.cgi?p=JeffWilliams&f=ACareerqqo1'
p944
aS'http://www.tennisabstract.com/cgi-bin/player.cgi?p=FilipPolasek&f=ACareerqqo1'
p945
aS'http://www.tennisabstract.com/cgi-bin/player.cgi?p=RevazOsadze&f=ACareerqqo1'
p946
aS'http://www.tennisabstract.com/cgi-bin/player.cgi?p=PetrLuxa&f=ACareerqqo1'
p947
aS'http://www.tennisabstract.com/cgi-bin/player.cgi?p=SatoshiIwabuchi&f=ACareerqqo1'
p948
aS'http://www.tennisabstract.com/cgi-bin/player.cgi?p=JohnDoran&f=ACareerqqo1'
p949
aS'http://www.tennisabstract.com/cgi-bin/player.cgi?p=SobirOchilov&f=ACareerqqo1'
p950
aS'http://www.tennisabstract.com/cgi-bin/player.cgi?p=YewMingSi&f=ACareerqqo1'
p951
aS'http://www.tennisabstract.com/cgi-bin/player.cgi?p=DanielKingTurner&f=ACareerqqo1'
p952
aS'http://www.tennisabstract.com/cgi-bin/player.cgi?p=ByronBlack&f=ACareerqqo1'
p953
aS'http://www.tennisabstract.com/cgi-bin/player.cgi?p=EfeUstundag&f=ACareerqqo1'
p954
aS'http://www.tennisabstract.com/cgi-bin/player.cgi?p=AivarasBalzekas&f=ACareerqqo1'
p955
aS'http://www.tennisabstract.com/cgi-bin/player.cgi?p=RobertKowalczyk&f=ACareerqqo1'
p956
aS'http://www.tennisabstract.com/cgi-bin/player.cgi?p=JorgeHaro&f=ACareerqqo1'
p957
aS'http://www.tennisabstract.com/cgi-bin/player.cgi?p=LaurenceTieleman&f=ACareerqqo1'
p958
aS'http://www.tennisabstract.com/cgi-bin/player.cgi?p=CedricPioline&f=ACareerqqo1'
p959
aS'http://www.tennisabstract.com/cgi-bin/player.cgi?p=AlejoApud&f=ACareerqqo1'
p960
aS'http://www.tennisabstract.com/cgi-bin/player.cgi?p=SamWarburg&f=ACareerqqo1'
p961
aS'http://www.tennisabstract.com/cgi-bin/player.cgi?p=RobertoSirotsky&f=ACareerqqo1'
p962
aS'http://www.tennisabstract.com/cgi-bin/player.cgi?p=BrydanKlein&f=ACareerqqo1'
p963
aS'http://www.tennisabstract.com/cgi-bin/player.cgi?p=JonathanArpin&f=ACareerqqo1'
p964
aS'http://www.tennisabstract.com/cgi-bin/player.cgi?p=ArtemDerepasko&f=ACareerqqo1'
p965
aS'http://www.tennisabstract.com/cgi-bin/player.cgi?p=AbdulHamidMakhkamov&f=ACareerqqo1'
p966
aS'http://www.tennisabstract.com/cgi-bin/player.cgi?p=EyalErlich&f=ACareerqqo1'
p967
aS'http://www.tennisabstract.com/cgi-bin/player.cgi?p=MartinDamm&f=ACareerqqo1'
p968
aS'http://www.tennisabstract.com/cgi-bin/player.cgi?p=JanMichaelGambill&f=ACareerqqo1'
p969
aS'http://www.tennisabstract.com/cgi-bin/player.cgi?p=NicolasEscude&f=ACareerqqo1'
p970
aS'http://www.tennisabstract.com/cgi-bin/player.cgi?p=NilsLanger&f=ACareerqqo1'
p971
aS'http://www.tennisabstract.com/cgi-bin/player.cgi?p=SebastianSachs&f=ACareerqqo1'
p972
aS'http://www.tennisabstract.com/cgi-bin/player.cgi?p=ClaudeNgoran&f=ACareerqqo1'
p973
aS'http://www.tennisabstract.com/cgi-bin/player.cgi?p=EoinCollins&f=ACareerqqo1'
p974
aS'http://www.tennisabstract.com/cgi-bin/player.cgi?p=PaulWekesa&f=ACareerqqo1'
p975
aS'http://www.tennisabstract.com/cgi-bin/player.cgi?p=AndreasFasching&f=ACareerqqo1'
p976
aS'http://www.tennisabstract.com/cgi-bin/player.cgi?p=RenzoFurlan&f=ACareerqqo1'
p977
aS'http://www.tennisabstract.com/cgi-bin/player.cgi?p=VladimirObradovic&f=ACareerqqo1'
p978
aS'http://www.tennisabstract.com/cgi-bin/player.cgi?p=PeteSampras&f=ACareerqqo1'
p979
aS'http://www.tennisabstract.com/cgi-bin/player.cgi?p=MaximeBoye&f=ACareerqqo1'
p980
aS'http://www.tennisabstract.com/cgi-bin/player.cgi?p=TomSpinks&f=ACareerqqo1'
p981
aS'http://www.tennisabstract.com/cgi-bin/player.cgi?p=ColinBeecher&f=ACareerqqo1'
p982
aS'http://www.tennisabstract.com/cgi-bin/player.cgi?p=OlivierPatience&f=ACareerqqo1'
p983
aS'http://www.tennisabstract.com/cgi-bin/player.cgi?p=NevilleGodwin&f=ACareerqqo1'
p984
aS'http://www.tennisabstract.com/cgi-bin/player.cgi?p=DanielMelo&f=ACareerqqo1'
p985
aS'http://www.tennisabstract.com/cgi-bin/player.cgi?p=DanielNestor&f=ACareerqqo1'
p986
aS'http://www.tennisabstract.com/cgi-bin/player.cgi?p=MichelKratochvil&f=ACareerqqo1'
p987
aS'http://www.tennisabstract.com/cgi-bin/player.cgi?p=ToddMartin&f=ACareerqqo1'
p988
aS'http://www.tennisabstract.com/cgi-bin/player.cgi?p=ErhanOral&f=ACareerqqo1'
p989
aS'http://www.tennisabstract.com/cgi-bin/player.cgi?p=LadislavChramosta&f=ACareerqqo1'
p990
aS'http://www.tennisabstract.com/cgi-bin/player.cgi?p=FrankMoser&f=ACareerqqo1'
p991
aS'http://www.tennisabstract.com/cgi-bin/player.cgi?p=BorisBorgula&f=ACareerqqo1'
p992
aS'http://www.tennisabstract.com/cgi-bin/player.cgi?p=KornelBardoczky&f=ACareerqqo1'
p993
aS'http://www.tennisabstract.com/cgi-bin/player.cgi?p=KalleFlygt&f=ACareerqqo1'
p994
aS'http://www.tennisabstract.com/cgi-bin/player.cgi?p=NikitaKryvonos&f=ACareerqqo1'
p995
aS'http://www.tennisabstract.com/cgi-bin/player.cgi?p=PatrickRafter&f=ACareerqqo1'
p996
aS'http://www.tennisabstract.com/cgi-bin/player.cgi?p=WayneBlack&f=ACareerqqo1'
p997
aS'http://www.tennisabstract.com/cgi-bin/player.cgi?p=AndreGhem&f=ACareerqqo1'
p998
aS'http://www.tennisabstract.com/cgi-bin/player.cgi?p=GabrielTrifu&f=ACareerqqo1'
p999
aS'http://www.tennisabstract.com/cgi-bin/player.cgi?p=NicolasTourte&f=ACareerqqo1'
p1000
aS'http://www.tennisabstract.com/cgi-bin/player.cgi?p=OwenCasey&f=ACareerqqo1'
p1001
aS'http://www.tennisabstract.com/cgi-bin/player.cgi?p=ZeljkoKrajan&f=ACareerqqo1'
p1002
aS'http://www.tennisabstract.com/cgi-bin/player.cgi?p=StephaneHuet&f=ACareerqqo1'
p1003
aS'http://www.tennisabstract.com/cgi-bin/player.cgi?p=FabioDocche&f=ACareerqqo1'
p1004
aS'http://www.tennisabstract.com/cgi-bin/player.cgi?p=JonathanEysseric&f=ACareerqqo1'
p1005
aS'http://www.tennisabstract.com/cgi-bin/player.cgi?p=TristanFarronMahon&f=ACareerqqo1'
p1006
aS'http://www.tennisabstract.com/cgi-bin/player.cgi?p=MarcusFugate&f=ACareerqqo1'
p1007
aS'http://www.tennisabstract.com/cgi-bin/player.cgi?p=MarkusHipfl&f=ACareerqqo1'
p1008
aS'http://www.tennisabstract.com/cgi-bin/player.cgi?p=MoseNavarra&f=ACareerqqo1'
p1009
aS'http://www.tennisabstract.com/cgi-bin/player.cgi?p=DiegoMoyano&f=ACareerqqo1'
p1010
aS'http://www.tennisabstract.com/cgi-bin/player.cgi?p=GustavoKodama&f=ACareerqqo1'
p1011
aS'http://www.tennisabstract.com/cgi-bin/player.cgi?p=JackBrasington&f=ACareerqqo1'
p1012
aS'http://www.tennisabstract.com/cgi-bin/player.cgi?p=FarrukhDustov&f=ACareerqqo1'
p1013
aS'http://www.tennisabstract.com/cgi-bin/player.cgi?p=RameezJunaid&f=ACareerqqo1'
p1014
aS'http://www.tennisabstract.com/cgi-bin/player.cgi?p=KevinSorensen&f=ACareerqqo1'
p1015
aS'http://www.tennisabstract.com/cgi-bin/player.cgi?p=AndreaGaudenzi&f=ACareerqqo1'
p1016
aS'http://www.tennisabstract.com/cgi-bin/player.cgi?p=MartinLee&f=ACareerqqo1'
p1017
aS'http://www.tennisabstract.com/cgi-bin/player.cgi?p=AntonioMartinVelez&f=ACareerqqo1'
p1018
aS'http://www.tennisabstract.com/cgi-bin/player.cgi?p=FrancescoAldi&f=ACareerqqo1'
p1019
aS'http://www.tennisabstract.com/cgi-bin/player.cgi?p=MichaelKohlmann&f=ACareerqqo1'
p1020
aS'http://www.tennisabstract.com/cgi-bin/player.cgi?p=FranciscoCosta&f=ACareerqqo1'
p1021
aS'http://www.tennisabstract.com/cgi-bin/player.cgi?p=MichalPrzysiezny&f=ACareerqqo1'
p1022
aS'http://www.tennisabstract.com/cgi-bin/player.cgi?p=JanSiemerink&f=ACareerqqo1'
p1023
aS'http://www.tennisabstract.com/cgi-bin/player.cgi?p=LevarHarperGriffith&f=ACareerqqo1'
p1024
aS'http://www.tennisabstract.com/cgi-bin/player.cgi?p=SimonDickson&f=ACareerqqo1'
p1025
aS'http://www.tennisabstract.com/cgi-bin/player.cgi?p=HichamArazi&f=ACareerqqo1'
p1026
aS'http://www.tennisabstract.com/cgi-bin/player.cgi?p=HenrikHolm&f=ACareerqqo1'
p1027
aS'http://www.tennisabstract.com/cgi-bin/player.cgi?p=JanMinar&f=ACareerqqo1'
p1028
aS'http://www.tennisabstract.com/cgi-bin/player.cgi?p=TravisRettenmaier&f=ACareerqqo1'
p1029
aS'http://www.tennisabstract.com/cgi-bin/player.cgi?p=TakaoSuzuki&f=ACareerqqo1'
p1030
aS'http://www.tennisabstract.com/cgi-bin/player.cgi?p=GergelyKisgyorgy&f=ACareerqqo1'
p1031
aS'http://www.tennisabstract.com/cgi-bin/player.cgi?p=MartinSchulhauser&f=ACareerqqo1'
p1032
aS'http://www.tennisabstract.com/cgi-bin/player.cgi?p=DiadjiKa&f=ACareerqqo1'
p1033
aS'http://www.tennisabstract.com/cgi-bin/player.cgi?p=EricProdon&f=ACareerqqo1'
p1034
aS'http://www.tennisabstract.com/cgi-bin/player.cgi?p=LeonardoAzzaro&f=ACareerqqo1'
p1035
aS'http://www.tennisabstract.com/cgi-bin/player.cgi?p=RyanPreston&f=ACareerqqo1'
p1036
aS'http://www.tennisabstract.com/cgi-bin/player.cgi?p=DiegoHipperdinger&f=ACareerqqo1'
p1037
aS'http://www.tennisabstract.com/cgi-bin/player.cgi?p=DaoudaNdiaye&f=ACareerqqo1'
p1038
aS'http://www.tennisabstract.com/cgi-bin/player.cgi?p=BartlomiejDabrowski&f=ACareerqqo1'
p1039
aS'http://www.tennisabstract.com/cgi-bin/player.cgi?p=AlexSatschko&f=ACareerqqo1'
p1040
aS'http://www.tennisabstract.com/cgi-bin/player.cgi?p=ScottLipsky&f=ACareerqqo1'
p1041
aS'http://www.tennisabstract.com/cgi-bin/player.cgi?p=GoranDragicevic&f=ACareerqqo1'
p1042
aS'http://www.tennisabstract.com/cgi-bin/player.cgi?p=SaschaKloer&f=ACareerqqo1'
p1043
aS'http://www.tennisabstract.com/cgi-bin/player.cgi?p=TuomasKetola&f=ACareerqqo1'
p1044
aS'http://www.tennisabstract.com/cgi-bin/player.cgi?p=AndyFahlke&f=ACareerqqo1'
p1045
aS'http://www.tennisabstract.com/cgi-bin/player.cgi?p=JonathanMarray&f=ACareerqqo1'
p1046
aS'http://www.tennisabstract.com/cgi-bin/player.cgi?p=ChristianVinck&f=ACareerqqo1'
p1047
aS'http://www.tennisabstract.com/cgi-bin/player.cgi?p=RainerEitzinger&f=ACareerqqo1'
p1048
aS'http://www.tennisabstract.com/cgi-bin/player.cgi?p=OlivierRamos&f=ACareerqqo1'
p1049
aS'http://www.tennisabstract.com/cgi-bin/player.cgi?p=GuillermoOlaso&f=ACareerqqo1'
p1050
aS'http://www.tennisabstract.com/cgi-bin/player.cgi?p=DanjilBraun&f=ACareerqqo1'
p1051
aS'http://www.tennisabstract.com/cgi-bin/player.cgi?p=WayneFerreira&f=ACareerqqo1'
p1052
aS'http://www.tennisabstract.com/cgi-bin/player.cgi?p=DavidSanchez&f=ACareerqqo1'
p1053
aS'http://www.tennisabstract.com/cgi-bin/player.cgi?p=JulianKnowle&f=ACareerqqo1'
p1054
aS'http://www.tennisabstract.com/cgi-bin/player.cgi?p=RobertLindstedt&f=ACareerqqo1'
p1055
aS'http://www.tennisabstract.com/cgi-bin/player.cgi?p=KacperCecek&f=ACareerqqo1'
p1056
aS'http://www.tennisabstract.com/cgi-bin/player.cgi?p=TobiasSummerer&f=ACareerqqo1'
p1057
aS'http://www.tennisabstract.com/cgi-bin/player.cgi?p=TasukuIwami&f=ACareerqqo1'
p1058
aS'http://www.tennisabstract.com/cgi-bin/player.cgi?p=MichailElgin&f=ACareerqqo1'
p1059
aS'http://www.tennisabstract.com/cgi-bin/player.cgi?p=GuillaumeMarx&f=ACareerqqo1'
p1060
aS'http://www.tennisabstract.com/cgi-bin/player.cgi?p=BertrandLemercier&f=ACareerqqo1'
p1061
aS'http://www.tennisabstract.com/cgi-bin/player.cgi?p=EmilioBenfeleAlvarez&f=ACareerqqo1'
p1062
aS'http://www.tennisabstract.com/cgi-bin/player.cgi?p=BrettSteven&f=ACareerqqo1'
p1063
aS'http://www.tennisabstract.com/cgi-bin/player.cgi?p=MartinZumpft&f=ACareerqqo1'
p1064
aS'http://www.tennisabstract.com/cgi-bin/player.cgi?p=RohitRajpal&f=ACareerqqo1'
p1065
aS'http://www.tennisabstract.com/cgi-bin/player.cgi?p=KiyotakaTachibana&f=ACareerqqo1'
p1066
aS'http://www.tennisabstract.com/cgi-bin/player.cgi?p=LouisGloria&f=ACareerqqo1'
p1067
aS'http://www.tennisabstract.com/cgi-bin/player.cgi?p=LorenzoManta&f=ACareerqqo1'
p1068
aS'http://www.tennisabstract.com/cgi-bin/player.cgi?p=CristianoCaratti&f=ACareerqqo1'
p1069
aS'http://www.tennisabstract.com/cgi-bin/player.cgi?p=MichaelGeserer&f=ACareerqqo1'
p1070
aS'http://www.tennisabstract.com/cgi-bin/player.cgi?p=ToddWoodbridge&f=ACareerqqo1'
p1071
aS'http://www.tennisabstract.com/cgi-bin/player.cgi?p=MichaelChang&f=ACareerqqo1'
p1072
aS'http://www.tennisabstract.com/cgi-bin/player.cgi?p=RobertoCarretero&f=ACareerqqo1'
p1073
aS'http://www.tennisabstract.com/cgi-bin/player.cgi?p=FabienCousin&f=ACareerqqo1'
p1074
aS'http://www.tennisabstract.com/cgi-bin/player.cgi?p=KeithEvans&f=ACareerqqo1'
p1075
aS'http://www.tennisabstract.com/cgi-bin/player.cgi?p=BrianMacphie&f=ACareerqqo1'
p1076
aS'http://www.tennisabstract.com/cgi-bin/player.cgi?p=JuanPino&f=ACareerqqo1'
p1077
aS'http://www.tennisabstract.com/cgi-bin/player.cgi?p=JonasFroberg&f=ACareerqqo1'
p1078
a.